CCS PCM C Compiler, Version 5.076, 56587               29-mai-24 10:51

               Filename:   D:\projetos_pic\pic_em_c\exemplo6\TXrs232.lst

               ROM used:   1121 words (14%)
                           Largest free fragment is 2048
               RAM used:   37 (10%) at main() level
                           51 (14%) worst case
               Stack used: 4 locations (3 in main + 1 for interrupts)
               Stack size: 8

*
0000:  MOVLW  02
0001:  MOVWF  0A
0002:  GOTO   2E4
0003:  NOP
0004:  MOVWF  7F
0005:  SWAPF  03,W
0006:  CLRF   03
0007:  MOVWF  21
0008:  MOVF   0A,W
0009:  MOVWF  20
000A:  CLRF   0A
000B:  MOVF   04,W
000C:  MOVWF  22
000D:  MOVF   77,W
000E:  MOVWF  23
000F:  MOVF   78,W
0010:  MOVWF  24
0011:  MOVF   79,W
0012:  MOVWF  25
0013:  MOVF   7A,W
0014:  MOVWF  26
0015:  BSF    03.6
0016:  MOVF   0D,W
0017:  BCF    03.6
0018:  MOVWF  27
0019:  BSF    03.6
001A:  MOVF   0F,W
001B:  BCF    03.6
001C:  MOVWF  28
001D:  BSF    03.6
001E:  MOVF   0C,W
001F:  BCF    03.6
0020:  MOVWF  29
0021:  BSF    03.6
0022:  MOVF   0E,W
0023:  BCF    03.6
0024:  MOVWF  2A
0025:  BCF    03.7
0026:  BCF    03.5
0027:  BTFSS  0B.5
0028:  GOTO   02B
0029:  BTFSC  0B.2
002A:  GOTO   04C
002B:  MOVF   22,W
002C:  MOVWF  04
002D:  MOVF   23,W
002E:  MOVWF  77
002F:  MOVF   24,W
0030:  MOVWF  78
0031:  MOVF   25,W
0032:  MOVWF  79
0033:  MOVF   26,W
0034:  MOVWF  7A
0035:  MOVF   27,W
0036:  BSF    03.6
0037:  MOVWF  0D
0038:  BCF    03.6
0039:  MOVF   28,W
003A:  BSF    03.6
003B:  MOVWF  0F
003C:  BCF    03.6
003D:  MOVF   29,W
003E:  BSF    03.6
003F:  MOVWF  0C
0040:  BCF    03.6
0041:  MOVF   2A,W
0042:  BSF    03.6
0043:  MOVWF  0E
0044:  BCF    03.6
0045:  MOVF   20,W
0046:  MOVWF  0A
0047:  SWAPF  21,W
0048:  MOVWF  03
0049:  SWAPF  7F,F
004A:  SWAPF  7F,W
004B:  RETFIE
004C:  BCF    0A.3
004D:  BCF    0A.4
004E:  GOTO   04F
.................... #include <TXrs232.h> 
.................... #include <16F877A.h> 
.................... //////////// Standard Header file for the PIC16F877A device //////////////// 
.................... /////////////////////////////////////////////////////////////////////////// 
.................... ////        (C) Copyright 1996, 2014 Custom Computer Services          //// 
.................... //// This source code may only be used by licensed users of the CCS C  //// 
.................... //// compiler.  This source code may only be distributed to other      //// 
.................... //// licensed users of the CCS C compiler.  No other use, reproduction //// 
.................... //// or distribution is permitted without written permission.          //// 
.................... //// Derivative programs created using this software in object code    //// 
.................... //// form are not restricted in any way.                               //// 
.................... /////////////////////////////////////////////////////////////////////////// 
.................... #device PIC16F877A 
*
0062:  DATA D4,32
0063:  DATA 6D,38
0064:  DATA 3A,10
0065:  DATA 25,18
0066:  DATA 34,26
0067:  DATA 75,05
0068:  DATA 00,00
*
00EE:  MOVLW  8E
00EF:  MOVWF  77
00F0:  MOVF   41,W
00F1:  MOVWF  78
00F2:  MOVF   40,W
00F3:  MOVWF  79
00F4:  CLRF   7A
00F5:  MOVF   78,F
00F6:  BTFSS  03.2
00F7:  GOTO   102
00F8:  MOVF   79,W
00F9:  MOVWF  78
00FA:  CLRF   79
00FB:  MOVLW  08
00FC:  SUBWF  77,F
00FD:  MOVF   78,F
00FE:  BTFSS  03.2
00FF:  GOTO   102
0100:  CLRF   77
0101:  GOTO   10A
0102:  BCF    03.0
0103:  BTFSC  78.7
0104:  GOTO   109
0105:  RLF    79,F
0106:  RLF    78,F
0107:  DECF   77,F
0108:  GOTO   102
0109:  BCF    78.7
010A:  RETURN
010B:  MOVF   40,W
010C:  BTFSC  03.2
010D:  GOTO   17B
010E:  MOVWF  48
010F:  MOVF   44,W
0110:  BTFSC  03.2
0111:  GOTO   17B
0112:  ADDWF  48,F
0113:  BTFSC  03.0
0114:  GOTO   11C
0115:  MOVLW  7F
0116:  SUBWF  48,F
0117:  BTFSS  03.0
0118:  GOTO   17B
0119:  BTFSC  03.2
011A:  GOTO   17B
011B:  GOTO   120
011C:  MOVLW  81
011D:  ADDWF  48,F
011E:  BTFSC  03.0
011F:  GOTO   17B
0120:  MOVF   48,W
0121:  MOVWF  77
0122:  CLRF   78
0123:  CLRF   79
0124:  CLRF   7A
0125:  MOVF   41,W
0126:  MOVWF  4C
0127:  BSF    4C.7
0128:  MOVF   42,W
0129:  MOVWF  4B
012A:  MOVF   43,W
012B:  MOVWF  4A
012C:  MOVLW  18
012D:  MOVWF  48
012E:  CLRF   49
012F:  BTFSS  4A.0
0130:  GOTO   149
0131:  MOVF   47,W
0132:  ADDWF  7A,F
0133:  BTFSS  03.0
0134:  GOTO   13B
0135:  INCF   79,F
0136:  BTFSS  03.2
0137:  GOTO   13B
0138:  INCF   78,F
0139:  BTFSC  03.2
013A:  BSF    49.7
013B:  MOVF   46,W
013C:  ADDWF  79,F
013D:  BTFSS  03.0
013E:  GOTO   142
013F:  INCF   78,F
0140:  BTFSC  03.2
0141:  BSF    49.7
0142:  MOVF   45,W
0143:  MOVWF  42
0144:  BSF    42.7
0145:  MOVF   42,W
0146:  ADDWF  78,F
0147:  BTFSC  03.0
0148:  BSF    49.7
0149:  RLF    49,F
014A:  RRF    78,F
014B:  RRF    79,F
014C:  RRF    7A,F
014D:  RRF    4C,F
014E:  RRF    4B,F
014F:  RRF    4A,F
0150:  BCF    03.0
0151:  DECFSZ 48,F
0152:  GOTO   12E
0153:  MOVLW  01
0154:  ADDWF  77,F
0155:  BTFSC  03.0
0156:  GOTO   17B
0157:  BTFSC  78.7
0158:  GOTO   160
0159:  RLF    4C,F
015A:  RLF    7A,F
015B:  RLF    79,F
015C:  RLF    78,F
015D:  DECF   77,F
015E:  BTFSC  03.2
015F:  GOTO   17B
0160:  BTFSS  4C.7
0161:  GOTO   171
0162:  INCF   7A,F
0163:  BTFSS  03.2
0164:  GOTO   171
0165:  INCF   79,F
0166:  BTFSS  03.2
0167:  GOTO   171
0168:  INCF   78,F
0169:  BTFSS  03.2
016A:  GOTO   171
016B:  RRF    78,F
016C:  RRF    79,F
016D:  RRF    7A,F
016E:  INCF   77,F
016F:  BTFSC  03.2
0170:  GOTO   17B
0171:  MOVF   41,W
0172:  MOVWF  49
0173:  MOVF   45,W
0174:  XORWF  49,F
0175:  BTFSS  49.7
0176:  GOTO   179
0177:  BSF    78.7
0178:  GOTO   17F
0179:  BCF    78.7
017A:  GOTO   17F
017B:  CLRF   77
017C:  CLRF   78
017D:  CLRF   79
017E:  CLRF   7A
017F:  RETURN
0180:  MOVLW  8E
0181:  MOVWF  77
0182:  MOVF   3E,W
0183:  SUBWF  77,F
0184:  MOVF   3F,W
0185:  MOVWF  79
0186:  MOVF   40,W
0187:  MOVWF  78
0188:  BSF    79.7
0189:  MOVF   77,F
018A:  BTFSC  03.2
018B:  GOTO   197
018C:  BCF    03.0
018D:  MOVF   79,F
018E:  BTFSS  03.2
018F:  GOTO   193
0190:  MOVF   78,F
0191:  BTFSC  03.2
0192:  GOTO   197
0193:  RRF    79,F
0194:  RRF    78,F
0195:  DECFSZ 77,F
0196:  GOTO   18C
0197:  BTFSS  3F.7
0198:  GOTO   19E
0199:  COMF   78,F
019A:  COMF   79,F
019B:  INCF   78,F
019C:  BTFSC  03.2
019D:  INCF   79,F
019E:  RETURN
*
01AF:  CLRF   46
01B0:  MOVF   04,W
01B1:  MOVWF  45
01B2:  BCF    46.0
01B3:  BTFSC  03.7
01B4:  BSF    46.0
01B5:  SWAPF  3F,W
01B6:  IORLW  F0
01B7:  MOVWF  41
01B8:  ADDWF  41,F
01B9:  ADDLW  E2
01BA:  MOVWF  42
01BB:  ADDLW  32
01BC:  MOVWF  44
01BD:  MOVF   3F,W
01BE:  ANDLW  0F
01BF:  ADDWF  42,F
01C0:  ADDWF  42,F
01C1:  ADDWF  44,F
01C2:  ADDLW  E9
01C3:  MOVWF  43
01C4:  ADDWF  43,F
01C5:  ADDWF  43,F
01C6:  SWAPF  3E,W
01C7:  ANDLW  0F
01C8:  ADDWF  43,F
01C9:  ADDWF  44,F
01CA:  RLF    43,F
01CB:  RLF    44,F
01CC:  COMF   44,F
01CD:  RLF    44,F
01CE:  MOVF   3E,W
01CF:  ANDLW  0F
01D0:  ADDWF  44,F
01D1:  RLF    41,F
01D2:  MOVLW  07
01D3:  MOVWF  40
01D4:  MOVLW  0A
01D5:  ADDWF  44,F
01D6:  DECF   43,F
01D7:  BTFSS  03.0
01D8:  GOTO   1D5
01D9:  ADDWF  43,F
01DA:  DECF   42,F
01DB:  BTFSS  03.0
01DC:  GOTO   1D9
01DD:  ADDWF  42,F
01DE:  DECF   41,F
01DF:  BTFSS  03.0
01E0:  GOTO   1DD
01E1:  ADDWF  41,F
01E2:  DECF   40,F
01E3:  BTFSS  03.0
01E4:  GOTO   1E1
01E5:  MOVLW  40
01E6:  MOVWF  04
01E7:  BCF    03.7
01E8:  MOVLW  07
01E9:  ANDWF  45,W
01EA:  BCF    45.6
01EB:  ADDWF  04,F
01EC:  MOVLW  44
01ED:  SUBWF  04,W
01EE:  BTFSC  03.2
01EF:  BSF    45.6
01F0:  MOVF   00,W
01F1:  MOVWF  77
01F2:  BTFSS  03.2
01F3:  GOTO   1FC
01F4:  BTFSC  45.6
01F5:  GOTO   1FC
01F6:  BTFSC  45.4
01F7:  GOTO   22A
01F8:  BTFSC  45.3
01F9:  GOTO   1FC
01FA:  MOVLW  20
01FB:  GOTO   1FF
01FC:  BSF    45.3
01FD:  BCF    45.4
01FE:  MOVLW  30
01FF:  ADDWF  77,F
0200:  CLRF   3F
0201:  MOVF   04,W
0202:  MOVWF  3E
0203:  BCF    3F.0
0204:  BTFSC  03.7
0205:  BSF    3F.0
0206:  MOVF   77,W
0207:  MOVWF  47
*
0225:  MOVF   3E,W
0226:  MOVWF  04
0227:  BCF    03.7
0228:  BTFSC  3F.0
0229:  BSF    03.7
022A:  INCF   04,F
022B:  BTFSS  45.6
022C:  GOTO   1EC
022D:  RETURN
022E:  MOVF   0B,W
022F:  MOVWF  3F
0230:  BCF    0B.7
0231:  BSF    03.5
0232:  BSF    03.6
0233:  BSF    0C.7
0234:  BSF    0C.0
0235:  NOP
0236:  NOP
0237:  BCF    03.5
0238:  BCF    03.6
0239:  BTFSC  3F.7
023A:  BSF    0B.7
023B:  BTFSC  03.0
023C:  GOTO   266
023D:  BSF    03.6
023E:  MOVF   0C,W
023F:  ANDLW  7F
0240:  BCF    03.6
0241:  MOVWF  3F
0242:  BSF    03.6
0243:  MOVF   0D,W
0244:  BCF    03.6
0245:  MOVWF  40
0246:  BSF    03.6
0247:  MOVF   0F,W
0248:  BCF    03.6
0249:  MOVWF  41
024A:  MOVF   3F,W
024B:  BTFSS  0C.4
024C:  GOTO   24B
024D:  MOVWF  19
024E:  MOVF   40,W
024F:  BSF    03.6
0250:  MOVWF  0D
0251:  BCF    03.6
0252:  MOVF   41,W
0253:  BSF    03.6
0254:  MOVWF  0F
0255:  BCF    03.6
0256:  MOVF   0B,W
0257:  MOVWF  42
0258:  BCF    0B.7
0259:  BSF    03.5
025A:  BSF    03.6
025B:  BSF    0C.7
025C:  BSF    0C.0
025D:  NOP
025E:  NOP
025F:  BCF    03.5
0260:  BCF    03.6
0261:  BTFSC  42.7
0262:  BSF    0B.7
0263:  DECFSZ 3E,F
0264:  GOTO   266
0265:  GOTO   286
0266:  BSF    03.6
0267:  RLF    0C,W
0268:  RLF    0E,W
0269:  ANDLW  7F
026A:  BCF    03.6
026B:  MOVWF  3F
026C:  BSF    03.6
026D:  MOVF   0D,W
026E:  BCF    03.6
026F:  MOVWF  40
0270:  BSF    03.6
0271:  MOVF   0F,W
0272:  BCF    03.6
0273:  MOVWF  41
0274:  MOVF   3F,W
0275:  BTFSS  0C.4
0276:  GOTO   275
0277:  MOVWF  19
0278:  MOVF   40,W
0279:  BSF    03.6
027A:  MOVWF  0D
027B:  BCF    03.6
027C:  MOVF   41,W
027D:  BSF    03.6
027E:  MOVWF  0F
027F:  INCF   0D,F
0280:  BTFSC  03.2
0281:  INCF   0F,F
0282:  BCF    03.0
0283:  BCF    03.6
0284:  DECFSZ 3E,F
0285:  GOTO   22E
0286:  BCF    0A.3
0287:  BCF    0A.4
0288:  GOTO   3D5 (RETURN)
0289:  CLRF   46
028A:  MOVF   04,W
028B:  MOVWF  45
028C:  BCF    46.0
028D:  BTFSC  03.7
028E:  BSF    46.0
028F:  SWAPF  3F,W
0290:  IORLW  F0
0291:  MOVWF  41
0292:  ADDWF  41,F
0293:  ADDLW  E2
0294:  MOVWF  42
0295:  ADDLW  32
0296:  MOVWF  44
0297:  MOVF   3F,W
0298:  ANDLW  0F
0299:  ADDWF  42,F
029A:  ADDWF  42,F
029B:  ADDWF  44,F
029C:  ADDLW  E9
029D:  MOVWF  43
029E:  ADDWF  43,F
029F:  ADDWF  43,F
02A0:  SWAPF  3E,W
02A1:  ANDLW  0F
02A2:  ADDWF  43,F
02A3:  ADDWF  44,F
02A4:  RLF    43,F
02A5:  RLF    44,F
02A6:  COMF   44,F
02A7:  RLF    44,F
02A8:  MOVF   3E,W
02A9:  ANDLW  0F
02AA:  ADDWF  44,F
02AB:  RLF    41,F
02AC:  MOVLW  07
02AD:  MOVWF  40
02AE:  MOVLW  0A
02AF:  ADDWF  44,F
02B0:  DECF   43,F
02B1:  BTFSS  03.0
02B2:  GOTO   2AF
02B3:  ADDWF  43,F
02B4:  DECF   42,F
02B5:  BTFSS  03.0
02B6:  GOTO   2B3
02B7:  ADDWF  42,F
02B8:  DECF   41,F
02B9:  BTFSS  03.0
02BA:  GOTO   2B7
02BB:  ADDWF  41,F
02BC:  DECF   40,F
02BD:  BTFSS  03.0
02BE:  GOTO   2BB
02BF:  MOVLW  40
02C0:  MOVWF  04
02C1:  BCF    03.7
02C2:  MOVLW  07
02C3:  ANDWF  45,W
02C4:  BCF    45.6
02C5:  ADDWF  04,F
02C6:  MOVLW  44
02C7:  SUBWF  04,W
02C8:  BTFSC  03.2
02C9:  BSF    45.6
02CA:  MOVF   00,W
02CB:  MOVWF  77
02CC:  BTFSS  03.2
02CD:  GOTO   2D6
02CE:  BTFSC  45.6
02CF:  GOTO   2D6
02D0:  BTFSC  45.4
02D1:  GOTO   2DE
02D2:  BTFSC  45.3
02D3:  GOTO   2D6
02D4:  MOVLW  20
02D5:  GOTO   2D9
02D6:  BSF    45.3
02D7:  BCF    45.4
02D8:  MOVLW  30
02D9:  ADDWF  77,F
02DA:  MOVF   77,W
02DB:  BTFSS  0C.4
02DC:  GOTO   2DB
02DD:  MOVWF  19
02DE:  INCF   04,F
02DF:  BTFSS  45.6
02E0:  GOTO   2C6
02E1:  BCF    0A.3
02E2:  BCF    0A.4
02E3:  GOTO   3DC (RETURN)
....................  
.................... #list 
....................  
.................... #device ADC=10 
....................  
.................... #FUSES PUT                      //Power Up Timer 
.................... #FUSES BROWNOUT                 //Reset when brownout detected 
.................... #FUSES NOLVP                    //No low voltage prgming, B3(PIC16) or B5(PIC18) used for I/O 
.................... #FUSES NOCPD                    //No EE protection 
.................... #FUSES NOWRT                    //Program memory not write protected 
.................... #FUSES NOPROTECT                //Code not protected from reading 
....................  
.................... #use delay(crystal=4MHz) 
*
00BA:  MOVLW  3E
00BB:  MOVWF  04
00BC:  BCF    03.7
00BD:  MOVF   00,W
00BE:  BTFSC  03.2
00BF:  GOTO   0CE
00C0:  MOVLW  01
00C1:  MOVWF  78
00C2:  CLRF   77
00C3:  DECFSZ 77,F
00C4:  GOTO   0C3
00C5:  DECFSZ 78,F
00C6:  GOTO   0C2
00C7:  MOVLW  4A
00C8:  MOVWF  77
00C9:  DECFSZ 77,F
00CA:  GOTO   0C9
00CB:  GOTO   0CC
00CC:  DECFSZ 00,F
00CD:  GOTO   0C0
00CE:  RETURN
.................... #use FIXED_IO( C_outputs=PIN_C2,PIN_C1 ) 
.................... #define SENSOR_TEMPERATURA   PIN_A0 
.................... #define POTENCIOMETRO_1   PIN_A1 
.................... #define POTENCIOMETRO_2   PIN_A3 
.................... #define S1   PIN_B0 
.................... #define S2   PIN_B1 
.................... #define S3   PIN_B2 
.................... #define S4   PIN_B3 
.................... #define TACOMETRO   PIN_C0 
.................... #define COOLER   PIN_C1 
.................... #define HEATER   PIN_C2 
....................  
.................... #use rs232(baud=9600,parity=N,xmit=PIN_C6,rcv=PIN_C7,bits=8,stream=PORT1) 
....................  
....................  
.................... #include <lcd_8bits.c> 
.................... /*========================================= 
.................... 8-BIT LCD DRIVER FOR PIC16F877A CCSC 
.................... ==========================================*/ 
.................... /////////////////////////////////////////////////////////////////// 
.................... // CCS C Compiler 
.................... // LCD 16x2 
.................... // 
.................... // by Nisar Ahmed 
.................... // 2009/03/27 
.................... ////////////////////////////////////////////////////////////////// 
.................... //#include <16F877.h>                           // PIC16F877 header file 
.................... //#use delay(clock=4000000)                       // for 4Mhz crystal 
.................... //#fuses XT, NOWDT, NOPROTECT, NOLVP              // for debug mode 
....................  
.................... #define PORT_A                  0               // define for function output() 
.................... #define PORT_B                  1 
.................... #define PORT_C                  2 
.................... #define PORT_D                  3 
.................... #define PORT_E                  4 
....................  
.................... #define NCHAR_PER_LINE          16              // max char numbers per line 
.................... #define LCD_RS                  PIN_E0 
.................... #define LCD_RW                  PIN_E2 
.................... #define LCD_E                   PIN_E1 
.................... #define LCD_DAT                 PORT_D 
.................... //===========================================================================// 
.................... //--- output() -----------------///////////////////////////////////////////////  
.................... //lcd data bus output 
.................... void output(int8 port, int8 dat) 
.................... { 
....................         switch(port) 
*
0069:  MOVF   48,W
006A:  XORLW  00
006B:  BTFSC  03.2
006C:  GOTO   07A
006D:  XORLW  01
006E:  BTFSC  03.2
006F:  GOTO   080
0070:  XORLW  03
0071:  BTFSC  03.2
0072:  GOTO   086
0073:  XORLW  01
0074:  BTFSC  03.2
0075:  GOTO   08D
0076:  XORLW  07
0077:  BTFSC  03.2
0078:  GOTO   093
0079:  GOTO   09B
....................                 { 
....................                 case PORT_A: output_a(dat);      break; 
007A:  BSF    03.5
007B:  CLRF   05
007C:  BCF    03.5
007D:  MOVF   49,W
007E:  MOVWF  05
007F:  GOTO   09B
....................                 case PORT_B: output_b(dat);      break; 
0080:  BSF    03.5
0081:  CLRF   06
0082:  BCF    03.5
0083:  MOVF   49,W
0084:  MOVWF  06
0085:  GOTO   09B
....................                 case PORT_C: output_c(dat);      break; 
0086:  MOVLW  F9
0087:  BSF    03.5
0088:  MOVWF  07
0089:  BCF    03.5
008A:  MOVF   49,W
008B:  MOVWF  07
008C:  GOTO   09B
....................                 case PORT_D: output_d(dat);      break; 
008D:  BSF    03.5
008E:  CLRF   08
008F:  BCF    03.5
0090:  MOVF   49,W
0091:  MOVWF  08
0092:  GOTO   09B
....................                 case PORT_E: output_e(dat);      break; 
0093:  BSF    03.5
0094:  BCF    09.0
0095:  BCF    09.1
0096:  BCF    09.2
0097:  BCF    03.5
0098:  MOVF   49,W
0099:  MOVWF  09
009A:  GOTO   09B
....................                 default :       //??? port maybe error! 
....................                         break; 
....................                 } 
009B:  RETURN
.................... }//end output() 
.................... //===========================================================================// 
.................... //--- lcd_write_cmd() -----------//////////////////////////////////////////////  
.................... void lcd_write_cmd(int8 cmd) 
.................... { 
....................    delay_us(40); 
009C:  MOVLW  0D
009D:  MOVWF  77
009E:  DECFSZ 77,F
009F:  GOTO   09E
....................    output_low(LCD_RS); 
00A0:  BSF    03.5
00A1:  BCF    09.0
00A2:  BCF    03.5
00A3:  BCF    09.0
....................    output_low(LCD_RW); 
00A4:  BSF    03.5
00A5:  BCF    09.2
00A6:  BCF    03.5
00A7:  BCF    09.2
....................    output(LCD_DAT, cmd); 
00A8:  MOVLW  03
00A9:  MOVWF  48
00AA:  MOVF   42,W
00AB:  MOVWF  49
00AC:  CALL   069
....................     
....................    output_high(LCD_E); 
00AD:  BSF    03.5
00AE:  BCF    09.1
00AF:  BCF    03.5
00B0:  BSF    09.1
....................    delay_us(40); 
00B1:  MOVLW  0D
00B2:  MOVWF  77
00B3:  DECFSZ 77,F
00B4:  GOTO   0B3
....................    output_low(LCD_E); 
00B5:  BSF    03.5
00B6:  BCF    09.1
00B7:  BCF    03.5
00B8:  BCF    09.1
00B9:  RETURN
.................... }//end lcd_write_cmd() 
.................... //===========================================================================// 
.................... //--- lcd_write_dat() ------------/////////////////////////////////////////////  
.................... void lcd_write_dat(int8 dat) 
.................... { 
....................    delay_us(40); 
*
0208:  MOVLW  0D
0209:  MOVWF  77
020A:  DECFSZ 77,F
020B:  GOTO   20A
....................    output_high(LCD_RS); 
020C:  BSF    03.5
020D:  BCF    09.0
020E:  BCF    03.5
020F:  BSF    09.0
....................    output_low(LCD_RW); 
0210:  BSF    03.5
0211:  BCF    09.2
0212:  BCF    03.5
0213:  BCF    09.2
....................    output(LCD_DAT, dat); 
0214:  MOVLW  03
0215:  MOVWF  48
0216:  MOVF   47,W
0217:  MOVWF  49
0218:  CALL   069
....................     
....................    output_high(LCD_E); 
0219:  BSF    03.5
021A:  BCF    09.1
021B:  BCF    03.5
021C:  BSF    09.1
....................    delay_us(40); 
021D:  MOVLW  0D
021E:  MOVWF  77
021F:  DECFSZ 77,F
0220:  GOTO   21F
....................    output_low(LCD_E); 
0221:  BSF    03.5
0222:  BCF    09.1
0223:  BCF    03.5
0224:  BCF    09.1
.................... }//end lcd_write_dat() 
.................... //===========================================================================// 
.................... //--- lcd_init() ------------//////////////////////////////////////////////////  
.................... void lcd_init(void) 
.................... { 
....................    output_low(LCD_E);              // Let LCD E line low 
*
00CF:  BSF    03.5
00D0:  BCF    09.1
00D1:  BCF    03.5
00D2:  BCF    09.1
....................     
....................    lcd_write_cmd(0x38);            // LCD 16x2, 5x7, 8bits data 
00D3:  MOVLW  38
00D4:  MOVWF  42
00D5:  CALL   09C
....................    delay_ms(15); 
00D6:  MOVLW  0F
00D7:  MOVWF  3E
00D8:  CALL   0BA
....................    lcd_write_cmd(0x01);            // Clear LCD display 
00D9:  MOVLW  01
00DA:  MOVWF  42
00DB:  CALL   09C
....................    delay_ms(10); 
00DC:  MOVLW  0A
00DD:  MOVWF  3E
00DE:  CALL   0BA
....................    lcd_write_cmd(0x0C);            // Open display & current 
00DF:  MOVLW  0C
00E0:  MOVWF  42
00E1:  CALL   09C
....................    delay_ms(10); 
00E2:  MOVLW  0A
00E3:  MOVWF  3E
00E4:  CALL   0BA
....................    lcd_write_cmd(0x06);            // Window fixed 
00E5:  MOVLW  06
00E6:  MOVWF  42
00E7:  CALL   09C
....................    delay_ms(10); 
00E8:  MOVLW  0A
00E9:  MOVWF  3E
00EA:  CALL   0BA
00EB:  BCF    0A.3
00EC:  BCF    0A.4
00ED:  GOTO   33C (RETURN)
.................... }//end lcd_init() 
.................... //===========================================================================// 
.................... //--- lcd_display_char() ------------////////////////////////////////////////// 
.................... void lcd_display_char(int8 line, int8 pos, int8 ch) 
.................... { 
....................         int8 tmp; 
....................  
....................         line = (line==0) ? 0 : 1; 
....................         pos  = (pos >NCHAR_PER_LINE) ? NCHAR_PER_LINE : pos; 
....................  
....................         tmp = 0x80 + 0x40*line + pos; 
....................         lcd_write_cmd(tmp); 
....................         lcd_write_dat(ch); 
.................... }//end lcd_display_char() 
.................... //===========================================================================// 
.................... //--- lcd_display_str() ------------///////////////////////////////////////////  
.................... void lcd_display_str(int8 line, char str[]) 
.................... { 
....................      int8 i; 
....................  
....................         for(i=0; i<NCHAR_PER_LINE; i++) 
....................             { 
....................                 lcd_display_char(line, i, ' '); 
....................                 } 
....................         for(i=0; i<NCHAR_PER_LINE; i++) 
....................                 { 
....................                 if(str[i] == '\0') break; 
....................                 lcd_display_char(line, i, str[i]); 
....................                 } 
.................... }//end lcd_display_str() 
.................... //===========================================================================// 
.................... //--- lcd_gotoxy(coluna linha) -----///////////////////////////////////////////  
.................... void lcd_gotoxy(unsigned int8 x, unsigned int8 y) 
.................... { 
....................    unsigned int8 address; 
....................     
....................    if(y != 1) 
*
019F:  DECFSZ 3F,W
01A0:  GOTO   1A2
01A1:  GOTO   1A5
....................       address = 0x40; 
01A2:  MOVLW  40
01A3:  MOVWF  40
01A4:  GOTO   1A6
....................    else 
....................       address = 0x00; 
01A5:  CLRF   40
....................       
....................    address += (x-1);    
01A6:  MOVLW  01
01A7:  SUBWF  3E,W
01A8:  ADDWF  40,F
....................    lcd_write_cmd(0x80|address); 
01A9:  MOVF   40,W
01AA:  IORLW  80
01AB:  MOVWF  41
01AC:  MOVWF  42
01AD:  CALL   09C
01AE:  RETURN
.................... } 
.................... //===========================================================================// 
....................  
....................  
.................... // Variáveis 
.................... int1 fim_tempo1, fim_tempo2; 
.................... int8 contador1 = 250, contador2 = 4; 
.................... int16 temperatura, potenciometro1, potenciometro2, rotacao; 
.................... float relacao_pot = 800 / 1023.0, relacao_helices = 60 / 7; 
....................  
.................... // Constantes 
.................... // Interrupção por TIMER0 
.................... #int_TIMER0 
....................  
.................... void  TIMER0_isr(void){ 
....................    set_timer0(get_timer0() + 6); 
*
004F:  MOVF   01,W
0050:  ADDLW  06
0051:  MOVWF  4D
0052:  MOVF   4D,W
0053:  MOVWF  01
....................    contador1--; 
0054:  DECFSZ 2C,F
....................     
....................    if( ! contador1){ 
0055:  GOTO   05E
....................        
....................       contador1 = 250; 
0056:  MOVLW  FA
0057:  MOVWF  2C
....................       fim_tempo1 = 1; 
0058:  BSF    2B.0
....................       contador2--; 
0059:  DECFSZ 2D,F
....................       if( ! contador2){ 
005A:  GOTO   05E
....................           
....................          contador2 = 4; 
005B:  MOVLW  04
005C:  MOVWF  2D
....................          fim_tempo2 = 1; 
005D:  BSF    2B.1
....................       } 
....................    } 
005E:  BCF    0B.2
005F:  BCF    0A.3
0060:  BCF    0A.4
0061:  GOTO   02B
.................... } 
....................  
.................... void main(){ 
*
02E4:  MOVF   03,W
02E5:  ANDLW  1F
02E6:  MOVWF  03
02E7:  MOVLW  19
02E8:  BSF    03.5
02E9:  MOVWF  19
02EA:  MOVLW  A6
02EB:  MOVWF  18
02EC:  MOVLW  90
02ED:  BCF    03.5
02EE:  MOVWF  18
02EF:  MOVLW  FA
02F0:  MOVWF  2C
02F1:  MOVLW  04
02F2:  MOVWF  2D
02F3:  MOVLW  0D
02F4:  MOVWF  39
02F5:  MOVLW  32
02F6:  MOVWF  38
02F7:  MOVLW  48
02F8:  MOVWF  37
02F9:  MOVLW  7E
02FA:  MOVWF  36
02FB:  CLRF   3D
02FC:  CLRF   3C
02FD:  CLRF   3B
02FE:  MOVLW  82
02FF:  MOVWF  3A
0300:  BSF    03.5
0301:  BSF    1F.0
0302:  BSF    1F.1
0303:  BSF    1F.2
0304:  BCF    1F.3
0305:  MOVLW  07
0306:  MOVWF  1C
0307:  BCF    03.7
....................    setup_adc_ports(AN0_AN1_AN2_AN3_AN4); 
0308:  BCF    1F.0
0309:  BSF    1F.1
030A:  BCF    1F.2
030B:  BCF    1F.3
....................    setup_adc(ADC_CLOCK_INTERNAL); 
030C:  BCF    1F.6
030D:  BCF    03.5
030E:  BSF    1F.6
030F:  BSF    1F.7
0310:  BSF    03.5
0311:  BSF    1F.7
0312:  BCF    03.5
0313:  BSF    1F.0
....................    setup_timer_0(RTCC_INTERNAL|RTCC_DIV_4|RTCC_8_BIT); //1, 0 ms overflow 
0314:  BSF    03.5
0315:  MOVF   01,W
0316:  ANDLW  C0
0317:  IORLW  01
0318:  MOVWF  01
....................    setup_timer_1(T1_EXTERNAL|T1_DIV_BY_1); //65, 5 ms overflow 
0319:  MOVLW  87
031A:  BCF    03.5
031B:  MOVWF  10
....................    setup_timer_2(T2_DIV_BY_1, 199, 1); //200 us overflow, 200 us interrupt 
031C:  MOVLW  00
031D:  MOVWF  78
031E:  IORLW  04
031F:  MOVWF  12
0320:  MOVLW  C7
0321:  BSF    03.5
0322:  MOVWF  12
....................    setup_ccp1(CCP_PWM); 
0323:  MOVLW  F9
0324:  MOVWF  07
0325:  BCF    03.5
0326:  BCF    07.2
0327:  MOVLW  0C
0328:  MOVWF  17
....................    setup_ccp2(CCP_PWM); 
0329:  MOVLW  F9
032A:  BSF    03.5
032B:  MOVWF  07
032C:  BCF    03.5
032D:  BCF    07.1
032E:  MOVLW  0C
032F:  MOVWF  1D
....................    set_pwm1_duty((int16)0); 
0330:  CLRF   15
0331:  MOVF   17,W
0332:  ANDLW  CF
0333:  MOVWF  17
....................    set_pwm2_duty((int16)0); 
0334:  CLRF   1B
0335:  MOVF   1D,W
0336:  ANDLW  CF
0337:  MOVWF  1D
....................    enable_interrupts(int_TIMER0); 
0338:  BSF    0B.5
....................    enable_interrupts(GLOBAL); 
0339:  MOVLW  C0
033A:  IORWF  0B,F
....................     
....................    lcd_init(); 
033B:  GOTO   0CF
....................    while(TRUE){ 
....................       if(fim_tempo1){ 
033C:  BTFSS  2B.0
033D:  GOTO   41E
....................        
....................          fim_tempo1 = 0; 
033E:  BCF    2B.0
....................           
....................          set_adc_channel(0); 
033F:  MOVLW  00
0340:  MOVWF  78
0341:  MOVF   1F,W
0342:  ANDLW  C7
0343:  IORWF  78,W
0344:  MOVWF  1F
....................          delay_us(40); 
0345:  MOVLW  0D
0346:  MOVWF  77
0347:  DECFSZ 77,F
0348:  GOTO   347
....................          temperatura = read_adc(); 
0349:  BSF    1F.2
034A:  BTFSC  1F.2
034B:  GOTO   34A
034C:  BSF    03.5
034D:  MOVF   1E,W
034E:  BCF    03.5
034F:  MOVWF  2E
0350:  MOVF   1E,W
0351:  MOVWF  2F
....................           
....................          set_adc_channel(1); 
0352:  MOVLW  08
0353:  MOVWF  78
0354:  MOVF   1F,W
0355:  ANDLW  C7
0356:  IORWF  78,W
0357:  MOVWF  1F
....................          delay_us(40); 
0358:  MOVLW  0D
0359:  MOVWF  77
035A:  DECFSZ 77,F
035B:  GOTO   35A
....................          potenciometro1 = read_adc() * relacao_pot; //(pot1 / 1023) * 800 
035C:  BSF    1F.2
035D:  BTFSC  1F.2
035E:  GOTO   35D
035F:  MOVF   1E,W
0360:  MOVWF  7A
0361:  BSF    03.5
0362:  MOVF   1E,W
0363:  BCF    03.5
0364:  MOVWF  3E
0365:  MOVF   1E,W
0366:  MOVWF  3F
0367:  MOVWF  41
0368:  MOVF   3E,W
0369:  MOVWF  40
036A:  CALL   0EE
036B:  MOVF   7A,W
036C:  MOVWF  43
036D:  MOVF   79,W
036E:  MOVWF  42
036F:  MOVF   78,W
0370:  MOVWF  41
0371:  MOVF   77,W
0372:  MOVWF  40
0373:  MOVF   39,W
0374:  MOVWF  47
0375:  MOVF   38,W
0376:  MOVWF  46
0377:  MOVF   37,W
0378:  MOVWF  45
0379:  MOVF   36,W
037A:  MOVWF  44
037B:  CALL   10B
037C:  MOVF   7A,W
037D:  MOVWF  41
037E:  MOVF   79,W
037F:  MOVWF  40
0380:  MOVF   78,W
0381:  MOVWF  3F
0382:  MOVF   77,W
0383:  MOVWF  3E
0384:  CALL   180
0385:  MOVF   79,W
0386:  MOVWF  31
0387:  MOVF   78,W
0388:  MOVWF  30
....................           
....................          set_adc_channel(2); 
0389:  MOVLW  10
038A:  MOVWF  78
038B:  MOVF   1F,W
038C:  ANDLW  C7
038D:  IORWF  78,W
038E:  MOVWF  1F
....................          delay_us(40); 
038F:  MOVLW  0D
0390:  MOVWF  77
0391:  DECFSZ 77,F
0392:  GOTO   391
....................          potenciometro2 = read_adc() * relacao_pot; 
0393:  BSF    1F.2
0394:  BTFSC  1F.2
0395:  GOTO   394
0396:  MOVF   1E,W
0397:  MOVWF  7A
0398:  BSF    03.5
0399:  MOVF   1E,W
039A:  BCF    03.5
039B:  MOVWF  3E
039C:  MOVF   1E,W
039D:  MOVWF  3F
039E:  MOVWF  41
039F:  MOVF   3E,W
03A0:  MOVWF  40
03A1:  CALL   0EE
03A2:  MOVF   7A,W
03A3:  MOVWF  43
03A4:  MOVF   79,W
03A5:  MOVWF  42
03A6:  MOVF   78,W
03A7:  MOVWF  41
03A8:  MOVF   77,W
03A9:  MOVWF  40
03AA:  MOVF   39,W
03AB:  MOVWF  47
03AC:  MOVF   38,W
03AD:  MOVWF  46
03AE:  MOVF   37,W
03AF:  MOVWF  45
03B0:  MOVF   36,W
03B1:  MOVWF  44
03B2:  CALL   10B
03B3:  MOVF   7A,W
03B4:  MOVWF  41
03B5:  MOVF   79,W
03B6:  MOVWF  40
03B7:  MOVF   78,W
03B8:  MOVWF  3F
03B9:  MOVF   77,W
03BA:  MOVWF  3E
03BB:  CALL   180
03BC:  MOVF   79,W
03BD:  MOVWF  33
03BE:  MOVF   78,W
03BF:  MOVWF  32
....................           
....................          lcd_gotoxy(1, 1); 
03C0:  MOVLW  01
03C1:  MOVWF  3E
03C2:  MOVWF  3F
03C3:  CALL   19F
....................          printf(lcd_write_dat, "%04Lu", temperatura); 
03C4:  MOVLW  09
03C5:  MOVWF  04
03C6:  MOVF   2F,W
03C7:  MOVWF  3F
03C8:  MOVF   2E,W
03C9:  MOVWF  3E
03CA:  CALL   1AF
....................          printf("Temp: %04Lu\n", temperatura); 
03CB:  MOVLW  62
03CC:  BSF    03.6
03CD:  MOVWF  0D
03CE:  MOVLW  00
03CF:  MOVWF  0F
03D0:  BCF    03.0
03D1:  MOVLW  06
03D2:  BCF    03.6
03D3:  MOVWF  3E
03D4:  GOTO   22E
03D5:  MOVLW  09
03D6:  MOVWF  04
03D7:  MOVF   2F,W
03D8:  MOVWF  3F
03D9:  MOVF   2E,W
03DA:  MOVWF  3E
03DB:  GOTO   289
03DC:  MOVLW  0A
03DD:  BTFSS  0C.4
03DE:  GOTO   3DD
03DF:  MOVWF  19
....................           
....................          lcd_gotoxy(7, 1); 
03E0:  MOVLW  07
03E1:  MOVWF  3E
03E2:  MOVLW  01
03E3:  MOVWF  3F
03E4:  CALL   19F
....................          printf(lcd_write_dat, "%04Lu", potenciometro1); 
03E5:  MOVLW  09
03E6:  MOVWF  04
03E7:  MOVF   31,W
03E8:  MOVWF  3F
03E9:  MOVF   30,W
03EA:  MOVWF  3E
03EB:  CALL   1AF
....................           
....................          lcd_gotoxy(13, 1); 
03EC:  MOVLW  0D
03ED:  MOVWF  3E
03EE:  MOVLW  01
03EF:  MOVWF  3F
03F0:  CALL   19F
....................          printf(lcd_write_dat, "%04Lu", potenciometro2); 
03F1:  MOVLW  09
03F2:  MOVWF  04
03F3:  MOVF   33,W
03F4:  MOVWF  3F
03F5:  MOVF   32,W
03F6:  MOVWF  3E
03F7:  CALL   1AF
....................           
....................          set_pwm1_duty(potenciometro1); 
03F8:  MOVF   31,W
03F9:  MOVWF  79
03FA:  MOVF   30,W
03FB:  MOVWF  78
03FC:  RRF    79,F
03FD:  RRF    78,F
03FE:  RRF    79,F
03FF:  RRF    78,F
0400:  RRF    79,F
0401:  MOVF   78,W
0402:  MOVWF  15
0403:  RRF    79,F
0404:  RRF    79,W
0405:  ANDLW  30
0406:  MOVWF  77
0407:  MOVF   17,W
0408:  ANDLW  CF
0409:  IORWF  77,W
040A:  MOVWF  17
....................          set_pwm2_duty(potenciometro2); 
040B:  MOVF   33,W
040C:  MOVWF  79
040D:  MOVF   32,W
040E:  MOVWF  78
040F:  RRF    79,F
0410:  RRF    78,F
0411:  RRF    79,F
0412:  RRF    78,F
0413:  RRF    79,F
0414:  MOVF   78,W
0415:  MOVWF  1B
0416:  RRF    79,F
0417:  RRF    79,W
0418:  ANDLW  30
0419:  MOVWF  77
041A:  MOVF   1D,W
041B:  ANDLW  CF
041C:  IORWF  77,W
041D:  MOVWF  1D
....................       } 
....................  
....................     
....................       if(fim_tempo2){ 
041E:  BTFSS  2B.1
041F:  GOTO   45F
....................          fim_tempo2 = 0; 
0420:  BCF    2B.1
....................           
....................          rotacao = get_timer1() * relacao_helices; //(Valor das rotações / 7 helices) * 60 - > valor rotacao * (60 / 7) 
0421:  MOVF   0F,W
0422:  MOVWF  7A
0423:  MOVF   0E,W
0424:  MOVWF  77
0425:  MOVF   0F,W
0426:  SUBWF  7A,W
0427:  BTFSS  03.2
0428:  GOTO   421
0429:  MOVF   77,W
042A:  MOVWF  3E
042B:  MOVF   7A,W
042C:  MOVWF  3F
042D:  MOVF   3F,W
042E:  MOVWF  41
042F:  MOVF   3E,W
0430:  MOVWF  40
0431:  CALL   0EE
0432:  MOVF   7A,W
0433:  MOVWF  43
0434:  MOVF   79,W
0435:  MOVWF  42
0436:  MOVF   78,W
0437:  MOVWF  41
0438:  MOVF   77,W
0439:  MOVWF  40
043A:  MOVF   3D,W
043B:  MOVWF  47
043C:  MOVF   3C,W
043D:  MOVWF  46
043E:  MOVF   3B,W
043F:  MOVWF  45
0440:  MOVF   3A,W
0441:  MOVWF  44
0442:  CALL   10B
0443:  MOVF   7A,W
0444:  MOVWF  41
0445:  MOVF   79,W
0446:  MOVWF  40
0447:  MOVF   78,W
0448:  MOVWF  3F
0449:  MOVF   77,W
044A:  MOVWF  3E
044B:  CALL   180
044C:  MOVF   79,W
044D:  MOVWF  35
044E:  MOVF   78,W
044F:  MOVWF  34
....................           
....................          set_timer1(0); 
0450:  CLRF   0E
0451:  CLRF   0F
0452:  CLRF   0E
....................           
....................          lcd_gotoxy(1, 2); 
0453:  MOVLW  01
0454:  MOVWF  3E
0455:  MOVLW  02
0456:  MOVWF  3F
0457:  CALL   19F
....................          printf(lcd_write_dat, "%05Lu", rotacao); 
0458:  MOVLW  08
0459:  MOVWF  04
045A:  MOVF   35,W
045B:  MOVWF  3F
045C:  MOVF   34,W
045D:  MOVWF  3E
045E:  CALL   1AF
....................          
....................       } 
045F:  GOTO   33C
....................    } 
.................... } 
....................  
0460:  SLEEP

Configuration Fuses:
   Word  1: 3F71   XT NOWDT PUT BROWNOUT NOLVP NOCPD NOWRT NODEBUG NOPROTECT
