CCS PCM C Compiler, Version 5.076, 56587               03-jul-24 12:04

               Filename:   D:\projetos_pic\pic_em_c\P2C-YuriDuarte\led_sequencial.lst

               ROM used:   2031 words (25%)
                           Largest free fragment is 2048
               RAM used:   131 (36%) at main() level
                           144 (39%) worst case
               Stack used: 4 locations (3 in main + 1 for interrupts)
               Stack size: 8

*
0000:  MOVLW  04
0001:  MOVWF  0A
0002:  GOTO   4BE
0003:  NOP
0004:  MOVWF  7F
0005:  SWAPF  03,W
0006:  CLRF   03
0007:  MOVWF  21
0008:  MOVF   0A,W
0009:  MOVWF  20
000A:  CLRF   0A
000B:  MOVF   04,W
000C:  MOVWF  22
000D:  MOVF   77,W
000E:  MOVWF  23
000F:  MOVF   78,W
0010:  MOVWF  24
0011:  MOVF   79,W
0012:  MOVWF  25
0013:  MOVF   7A,W
0014:  MOVWF  26
0015:  BSF    03.6
0016:  MOVF   0D,W
0017:  BCF    03.6
0018:  MOVWF  27
0019:  BSF    03.6
001A:  MOVF   0F,W
001B:  BCF    03.6
001C:  MOVWF  28
001D:  BSF    03.6
001E:  MOVF   0C,W
001F:  BCF    03.6
0020:  MOVWF  29
0021:  BSF    03.6
0022:  MOVF   0E,W
0023:  BCF    03.6
0024:  MOVWF  2A
0025:  BCF    03.7
0026:  BCF    03.5
0027:  BTFSS  0B.5
0028:  GOTO   02B
0029:  BTFSC  0B.2
002A:  GOTO   04C
002B:  MOVF   22,W
002C:  MOVWF  04
002D:  MOVF   23,W
002E:  MOVWF  77
002F:  MOVF   24,W
0030:  MOVWF  78
0031:  MOVF   25,W
0032:  MOVWF  79
0033:  MOVF   26,W
0034:  MOVWF  7A
0035:  MOVF   27,W
0036:  BSF    03.6
0037:  MOVWF  0D
0038:  BCF    03.6
0039:  MOVF   28,W
003A:  BSF    03.6
003B:  MOVWF  0F
003C:  BCF    03.6
003D:  MOVF   29,W
003E:  BSF    03.6
003F:  MOVWF  0C
0040:  BCF    03.6
0041:  MOVF   2A,W
0042:  BSF    03.6
0043:  MOVWF  0E
0044:  BCF    03.6
0045:  MOVF   20,W
0046:  MOVWF  0A
0047:  SWAPF  21,W
0048:  MOVWF  03
0049:  SWAPF  7F,F
004A:  SWAPF  7F,W
004B:  RETFIE
004C:  BCF    0A.3
004D:  BCF    0A.4
004E:  GOTO   04F
.................... #include <led_sequencial.h> 
.................... #include <16F877A.h> 
.................... //////////// Standard Header file for the PIC16F877A device //////////////// 
.................... /////////////////////////////////////////////////////////////////////////// 
.................... ////        (C) Copyright 1996, 2014 Custom Computer Services          //// 
.................... //// This source code may only be used by licensed users of the CCS C  //// 
.................... //// compiler.  This source code may only be distributed to other      //// 
.................... //// licensed users of the CCS C compiler.  No other use, reproduction //// 
.................... //// or distribution is permitted without written permission.          //// 
.................... //// Derivative programs created using this software in object code    //// 
.................... //// form are not restricted in any way.                               //// 
.................... /////////////////////////////////////////////////////////////////////////// 
.................... #device PIC16F877A 
*
006A:  DATA D3,34
006B:  DATA 73,3A
006C:  DATA 3A,10
006D:  DATA 4F,23
006E:  DATA 46,00
006F:  DATA D0,37
0070:  DATA 74,1D
0071:  DATA A0,12
0072:  DATA 30,1A
0073:  DATA CC,2A
0074:  DATA 00,00
0075:  DATA D3,34
0076:  DATA 73,3A
0077:  DATA 3A,10
0078:  DATA 4F,27
0079:  DATA 21,00
007A:  DATA D3,34
007B:  DATA 73,3A
007C:  DATA 3A,10
007D:  DATA 4F,23
007E:  DATA 46,00
007F:  DATA D0,37
0080:  DATA 74,1D
0081:  DATA A0,12
0082:  DATA 30,1A
0083:  DATA CC,2A
0084:  DATA 00,00
*
0154:  MOVF   0B,W
0155:  BSF    03.5
0156:  MOVWF  47
0157:  BCF    03.5
0158:  BCF    0B.7
0159:  BSF    03.5
015A:  BSF    03.6
015B:  BSF    0C.7
015C:  BSF    0C.0
015D:  NOP
015E:  NOP
015F:  BCF    03.6
0160:  BTFSS  47.7
0161:  GOTO   165
0162:  BCF    03.5
0163:  BSF    0B.7
0164:  BSF    03.5
0165:  BCF    03.5
0166:  BSF    03.6
0167:  MOVF   0C,W
0168:  ANDLW  7F
0169:  BTFSC  03.2
016A:  GOTO   1C6
016B:  BSF    03.5
016C:  BCF    03.6
016D:  MOVWF  47
016E:  BCF    03.5
016F:  BSF    03.6
0170:  MOVF   0D,W
0171:  BSF    03.5
0172:  BCF    03.6
0173:  MOVWF  48
0174:  BCF    03.5
0175:  BSF    03.6
0176:  MOVF   0F,W
0177:  BSF    03.5
0178:  BCF    03.6
0179:  MOVWF  49
017A:  MOVF   47,W
017B:  MOVWF  50
017C:  BCF    03.5
017D:  CALL   132
017E:  BSF    03.5
017F:  MOVF   48,W
0180:  BCF    03.5
0181:  BSF    03.6
0182:  MOVWF  0D
0183:  BSF    03.5
0184:  BCF    03.6
0185:  MOVF   49,W
0186:  BCF    03.5
0187:  BSF    03.6
0188:  MOVWF  0F
0189:  BCF    03.6
018A:  MOVF   0B,W
018B:  BSF    03.5
018C:  MOVWF  4A
018D:  BCF    03.5
018E:  BCF    0B.7
018F:  BSF    03.5
0190:  BSF    03.6
0191:  BSF    0C.7
0192:  BSF    0C.0
0193:  NOP
0194:  NOP
0195:  BCF    03.6
0196:  BTFSS  4A.7
0197:  GOTO   19B
0198:  BCF    03.5
0199:  BSF    0B.7
019A:  BSF    03.5
019B:  BCF    03.5
019C:  BSF    03.6
019D:  RLF    0C,W
019E:  RLF    0E,W
019F:  ANDLW  7F
01A0:  BTFSC  03.2
01A1:  GOTO   1C6
01A2:  BSF    03.5
01A3:  BCF    03.6
01A4:  MOVWF  47
01A5:  BCF    03.5
01A6:  BSF    03.6
01A7:  MOVF   0D,W
01A8:  BSF    03.5
01A9:  BCF    03.6
01AA:  MOVWF  48
01AB:  BCF    03.5
01AC:  BSF    03.6
01AD:  MOVF   0F,W
01AE:  BSF    03.5
01AF:  BCF    03.6
01B0:  MOVWF  49
01B1:  MOVF   47,W
01B2:  MOVWF  50
01B3:  BCF    03.5
01B4:  CALL   132
01B5:  BSF    03.5
01B6:  MOVF   48,W
01B7:  BCF    03.5
01B8:  BSF    03.6
01B9:  MOVWF  0D
01BA:  BSF    03.5
01BB:  BCF    03.6
01BC:  MOVF   49,W
01BD:  BCF    03.5
01BE:  BSF    03.6
01BF:  MOVWF  0F
01C0:  INCF   0D,F
01C1:  BTFSC  03.2
01C2:  INCF   0F,F
01C3:  BCF    03.6
01C4:  GOTO   154
01C5:  BSF    03.6
01C6:  BCF    03.6
01C7:  RETURN
01C8:  BSF    03.5
01C9:  CLRF   4F
01CA:  MOVF   04,W
01CB:  MOVWF  4E
01CC:  BCF    4F.0
01CD:  BTFSC  03.7
01CE:  BSF    4F.0
01CF:  SWAPF  48,W
01D0:  IORLW  F0
01D1:  MOVWF  4A
01D2:  ADDWF  4A,F
01D3:  ADDLW  E2
01D4:  MOVWF  4B
01D5:  ADDLW  32
01D6:  MOVWF  4D
01D7:  MOVF   48,W
01D8:  ANDLW  0F
01D9:  ADDWF  4B,F
01DA:  ADDWF  4B,F
01DB:  ADDWF  4D,F
01DC:  ADDLW  E9
01DD:  MOVWF  4C
01DE:  ADDWF  4C,F
01DF:  ADDWF  4C,F
01E0:  SWAPF  47,W
01E1:  ANDLW  0F
01E2:  ADDWF  4C,F
01E3:  ADDWF  4D,F
01E4:  RLF    4C,F
01E5:  RLF    4D,F
01E6:  COMF   4D,F
01E7:  RLF    4D,F
01E8:  MOVF   47,W
01E9:  ANDLW  0F
01EA:  ADDWF  4D,F
01EB:  RLF    4A,F
01EC:  MOVLW  07
01ED:  MOVWF  49
01EE:  MOVLW  0A
01EF:  ADDWF  4D,F
01F0:  DECF   4C,F
01F1:  BTFSS  03.0
01F2:  GOTO   1EF
01F3:  ADDWF  4C,F
01F4:  DECF   4B,F
01F5:  BTFSS  03.0
01F6:  GOTO   1F3
01F7:  ADDWF  4B,F
01F8:  DECF   4A,F
01F9:  BTFSS  03.0
01FA:  GOTO   1F7
01FB:  ADDWF  4A,F
01FC:  DECF   49,F
01FD:  BTFSS  03.0
01FE:  GOTO   1FB
01FF:  MOVLW  C9
0200:  MOVWF  04
0201:  BCF    03.7
0202:  MOVLW  07
0203:  ANDWF  4E,W
0204:  BCF    4E.6
0205:  ADDWF  04,F
0206:  MOVLW  CD
0207:  SUBWF  04,W
0208:  BTFSC  03.2
0209:  BSF    4E.6
020A:  MOVF   00,W
020B:  MOVWF  77
020C:  BTFSS  03.2
020D:  GOTO   216
020E:  BTFSC  4E.6
020F:  GOTO   216
0210:  BTFSC  4E.4
0211:  GOTO   22A
0212:  BTFSC  4E.3
0213:  GOTO   216
0214:  MOVLW  20
0215:  GOTO   219
0216:  BSF    4E.3
0217:  BCF    4E.4
0218:  MOVLW  30
0219:  ADDWF  77,F
021A:  CLRF   48
021B:  MOVF   04,W
021C:  MOVWF  47
021D:  BCF    48.0
021E:  BTFSC  03.7
021F:  BSF    48.0
0220:  MOVF   77,W
0221:  MOVWF  50
0222:  BCF    03.5
0223:  CALL   132
0224:  BSF    03.5
0225:  MOVF   47,W
0226:  MOVWF  04
0227:  BCF    03.7
0228:  BTFSC  48.0
0229:  BSF    03.7
022A:  INCF   04,F
022B:  BTFSS  4E.6
022C:  GOTO   206
022D:  BCF    03.5
022E:  RETURN
022F:  MOVLW  8E
0230:  MOVWF  77
0231:  BSF    03.5
0232:  MOVF   48,W
0233:  MOVWF  78
0234:  MOVF   47,W
0235:  MOVWF  79
0236:  CLRF   7A
0237:  MOVF   78,F
0238:  BTFSS  03.2
0239:  GOTO   244
023A:  MOVF   79,W
023B:  MOVWF  78
023C:  CLRF   79
023D:  MOVLW  08
023E:  SUBWF  77,F
023F:  MOVF   78,F
0240:  BTFSS  03.2
0241:  GOTO   244
0242:  CLRF   77
0243:  GOTO   24C
0244:  BCF    03.0
0245:  BTFSC  78.7
0246:  GOTO   24B
0247:  RLF    79,F
0248:  RLF    78,F
0249:  DECF   77,F
024A:  GOTO   244
024B:  BCF    78.7
024C:  BCF    03.5
024D:  RETURN
024E:  BSF    03.5
024F:  MOVF   4B,W
0250:  BTFSC  03.2
0251:  GOTO   2BF
0252:  MOVWF  53
0253:  MOVF   4F,W
0254:  BTFSC  03.2
0255:  GOTO   2BF
0256:  ADDWF  53,F
0257:  BTFSC  03.0
0258:  GOTO   260
0259:  MOVLW  7F
025A:  SUBWF  53,F
025B:  BTFSS  03.0
025C:  GOTO   2BF
025D:  BTFSC  03.2
025E:  GOTO   2BF
025F:  GOTO   264
0260:  MOVLW  81
0261:  ADDWF  53,F
0262:  BTFSC  03.0
0263:  GOTO   2BF
0264:  MOVF   53,W
0265:  MOVWF  77
0266:  CLRF   78
0267:  CLRF   79
0268:  CLRF   7A
0269:  MOVF   4C,W
026A:  MOVWF  57
026B:  BSF    57.7
026C:  MOVF   4D,W
026D:  MOVWF  56
026E:  MOVF   4E,W
026F:  MOVWF  55
0270:  MOVLW  18
0271:  MOVWF  53
0272:  CLRF   54
0273:  BTFSS  55.0
0274:  GOTO   28D
0275:  MOVF   52,W
0276:  ADDWF  7A,F
0277:  BTFSS  03.0
0278:  GOTO   27F
0279:  INCF   79,F
027A:  BTFSS  03.2
027B:  GOTO   27F
027C:  INCF   78,F
027D:  BTFSC  03.2
027E:  BSF    54.7
027F:  MOVF   51,W
0280:  ADDWF  79,F
0281:  BTFSS  03.0
0282:  GOTO   286
0283:  INCF   78,F
0284:  BTFSC  03.2
0285:  BSF    54.7
0286:  MOVF   50,W
0287:  MOVWF  4D
0288:  BSF    4D.7
0289:  MOVF   4D,W
028A:  ADDWF  78,F
028B:  BTFSC  03.0
028C:  BSF    54.7
028D:  RLF    54,F
028E:  RRF    78,F
028F:  RRF    79,F
0290:  RRF    7A,F
0291:  RRF    57,F
0292:  RRF    56,F
0293:  RRF    55,F
0294:  BCF    03.0
0295:  DECFSZ 53,F
0296:  GOTO   272
0297:  MOVLW  01
0298:  ADDWF  77,F
0299:  BTFSC  03.0
029A:  GOTO   2BF
029B:  BTFSC  78.7
029C:  GOTO   2A4
029D:  RLF    57,F
029E:  RLF    7A,F
029F:  RLF    79,F
02A0:  RLF    78,F
02A1:  DECF   77,F
02A2:  BTFSC  03.2
02A3:  GOTO   2BF
02A4:  BTFSS  57.7
02A5:  GOTO   2B5
02A6:  INCF   7A,F
02A7:  BTFSS  03.2
02A8:  GOTO   2B5
02A9:  INCF   79,F
02AA:  BTFSS  03.2
02AB:  GOTO   2B5
02AC:  INCF   78,F
02AD:  BTFSS  03.2
02AE:  GOTO   2B5
02AF:  RRF    78,F
02B0:  RRF    79,F
02B1:  RRF    7A,F
02B2:  INCF   77,F
02B3:  BTFSC  03.2
02B4:  GOTO   2BF
02B5:  MOVF   4C,W
02B6:  MOVWF  54
02B7:  MOVF   50,W
02B8:  XORWF  54,F
02B9:  BTFSS  54.7
02BA:  GOTO   2BD
02BB:  BSF    78.7
02BC:  GOTO   2C3
02BD:  BCF    78.7
02BE:  GOTO   2C3
02BF:  CLRF   77
02C0:  CLRF   78
02C1:  CLRF   79
02C2:  CLRF   7A
02C3:  BCF    03.5
02C4:  RETURN
02C5:  MOVLW  8E
02C6:  MOVWF  77
02C7:  BSF    03.5
02C8:  MOVF   47,W
02C9:  SUBWF  77,F
02CA:  MOVF   48,W
02CB:  MOVWF  79
02CC:  MOVF   49,W
02CD:  MOVWF  78
02CE:  BSF    79.7
02CF:  MOVF   77,F
02D0:  BTFSC  03.2
02D1:  GOTO   2DD
02D2:  BCF    03.0
02D3:  MOVF   79,F
02D4:  BTFSS  03.2
02D5:  GOTO   2D9
02D6:  MOVF   78,F
02D7:  BTFSC  03.2
02D8:  GOTO   2DD
02D9:  RRF    79,F
02DA:  RRF    78,F
02DB:  DECFSZ 77,F
02DC:  GOTO   2D2
02DD:  BTFSS  48.7
02DE:  GOTO   2E4
02DF:  COMF   78,F
02E0:  COMF   79,F
02E1:  INCF   78,F
02E2:  BTFSC  03.2
02E3:  INCF   79,F
02E4:  BCF    03.5
02E5:  RETURN
02E6:  MOVF   0B,W
02E7:  BSF    03.5
02E8:  MOVWF  48
02E9:  BCF    03.5
02EA:  BCF    0B.7
02EB:  BSF    03.5
02EC:  BSF    03.6
02ED:  BSF    0C.7
02EE:  BSF    0C.0
02EF:  NOP
02F0:  NOP
02F1:  BCF    03.6
02F2:  BTFSS  48.7
02F3:  GOTO   2F7
02F4:  BCF    03.5
02F5:  BSF    0B.7
02F6:  BSF    03.5
02F7:  BTFSC  03.0
02F8:  GOTO   330
02F9:  BCF    03.5
02FA:  BSF    03.6
02FB:  MOVF   0C,W
02FC:  ANDLW  7F
02FD:  BSF    03.5
02FE:  BCF    03.6
02FF:  MOVWF  48
0300:  BCF    03.5
0301:  BSF    03.6
0302:  MOVF   0D,W
0303:  BSF    03.5
0304:  BCF    03.6
0305:  MOVWF  49
0306:  BCF    03.5
0307:  BSF    03.6
0308:  MOVF   0F,W
0309:  BSF    03.5
030A:  BCF    03.6
030B:  MOVWF  4A
030C:  MOVF   48,W
030D:  MOVWF  50
030E:  BCF    03.5
030F:  CALL   132
0310:  BSF    03.5
0311:  MOVF   49,W
0312:  BCF    03.5
0313:  BSF    03.6
0314:  MOVWF  0D
0315:  BSF    03.5
0316:  BCF    03.6
0317:  MOVF   4A,W
0318:  BCF    03.5
0319:  BSF    03.6
031A:  MOVWF  0F
031B:  BCF    03.6
031C:  MOVF   0B,W
031D:  BSF    03.5
031E:  MOVWF  4B
031F:  BCF    03.5
0320:  BCF    0B.7
0321:  BSF    03.5
0322:  BSF    03.6
0323:  BSF    0C.7
0324:  BSF    0C.0
0325:  NOP
0326:  NOP
0327:  BCF    03.6
0328:  BTFSS  4B.7
0329:  GOTO   32D
032A:  BCF    03.5
032B:  BSF    0B.7
032C:  BSF    03.5
032D:  DECFSZ 47,F
032E:  GOTO   330
032F:  GOTO   35E
0330:  BCF    03.5
0331:  BSF    03.6
0332:  RLF    0C,W
0333:  RLF    0E,W
0334:  ANDLW  7F
0335:  BSF    03.5
0336:  BCF    03.6
0337:  MOVWF  48
0338:  BCF    03.5
0339:  BSF    03.6
033A:  MOVF   0D,W
033B:  BSF    03.5
033C:  BCF    03.6
033D:  MOVWF  49
033E:  BCF    03.5
033F:  BSF    03.6
0340:  MOVF   0F,W
0341:  BSF    03.5
0342:  BCF    03.6
0343:  MOVWF  4A
0344:  MOVF   48,W
0345:  MOVWF  50
0346:  BCF    03.5
0347:  CALL   132
0348:  BSF    03.5
0349:  MOVF   49,W
034A:  BCF    03.5
034B:  BSF    03.6
034C:  MOVWF  0D
034D:  BSF    03.5
034E:  BCF    03.6
034F:  MOVF   4A,W
0350:  BCF    03.5
0351:  BSF    03.6
0352:  MOVWF  0F
0353:  INCF   0D,F
0354:  BTFSC  03.2
0355:  INCF   0F,F
0356:  BCF    03.0
0357:  BSF    03.5
0358:  BCF    03.6
0359:  DECFSZ 47,F
035A:  GOTO   35C
035B:  GOTO   35E
035C:  BCF    03.5
035D:  GOTO   2E6
035E:  BCF    03.5
035F:  RETURN
0360:  BSF    03.5
0361:  MOVF   47,W
0362:  BTFSC  03.2
0363:  GOTO   426
0364:  MOVWF  53
0365:  MOVF   4B,W
0366:  BTFSC  03.2
0367:  GOTO   426
0368:  SUBWF  53,F
0369:  BTFSS  03.0
036A:  GOTO   370
036B:  MOVLW  7F
036C:  ADDWF  53,F
036D:  BTFSC  03.0
036E:  GOTO   426
036F:  GOTO   376
0370:  MOVLW  81
0371:  SUBWF  53,F
0372:  BTFSS  03.0
0373:  GOTO   426
0374:  BTFSC  03.2
0375:  GOTO   426
0376:  MOVF   53,W
0377:  MOVWF  77
0378:  CLRF   78
0379:  CLRF   79
037A:  CLRF   7A
037B:  CLRF   52
037C:  MOVF   48,W
037D:  MOVWF  51
037E:  BSF    51.7
037F:  MOVF   49,W
0380:  MOVWF  50
0381:  MOVF   4A,W
0382:  MOVWF  4F
0383:  MOVLW  19
0384:  MOVWF  53
0385:  MOVF   4E,W
0386:  SUBWF  4F,F
0387:  BTFSC  03.0
0388:  GOTO   399
0389:  MOVLW  01
038A:  SUBWF  50,F
038B:  BTFSC  03.0
038C:  GOTO   399
038D:  SUBWF  51,F
038E:  BTFSC  03.0
038F:  GOTO   399
0390:  SUBWF  52,F
0391:  BTFSC  03.0
0392:  GOTO   399
0393:  INCF   52,F
0394:  INCF   51,F
0395:  INCF   50,F
0396:  MOVF   4E,W
0397:  ADDWF  4F,F
0398:  GOTO   3CB
0399:  MOVF   4D,W
039A:  SUBWF  50,F
039B:  BTFSC  03.0
039C:  GOTO   3B4
039D:  MOVLW  01
039E:  SUBWF  51,F
039F:  BTFSC  03.0
03A0:  GOTO   3B4
03A1:  SUBWF  52,F
03A2:  BTFSC  03.0
03A3:  GOTO   3B4
03A4:  INCF   52,F
03A5:  INCF   51,F
03A6:  MOVF   4D,W
03A7:  ADDWF  50,F
03A8:  MOVF   4E,W
03A9:  ADDWF  4F,F
03AA:  BTFSS  03.0
03AB:  GOTO   3CB
03AC:  INCF   50,F
03AD:  BTFSS  03.2
03AE:  GOTO   3CB
03AF:  INCF   51,F
03B0:  BTFSS  03.2
03B1:  GOTO   3CB
03B2:  INCF   52,F
03B3:  GOTO   3CB
03B4:  MOVF   4C,W
03B5:  IORLW  80
03B6:  SUBWF  51,F
03B7:  BTFSC  03.0
03B8:  GOTO   3CA
03B9:  MOVLW  01
03BA:  SUBWF  52,F
03BB:  BTFSC  03.0
03BC:  GOTO   3CA
03BD:  INCF   52,F
03BE:  MOVF   4C,W
03BF:  IORLW  80
03C0:  ADDWF  51,F
03C1:  MOVF   4D,W
03C2:  ADDWF  50,F
03C3:  BTFSS  03.0
03C4:  GOTO   3A8
03C5:  INCF   51,F
03C6:  BTFSS  03.2
03C7:  GOTO   3A8
03C8:  INCF   52,F
03C9:  GOTO   3A8
03CA:  BSF    7A.0
03CB:  DECFSZ 53,F
03CC:  GOTO   3CE
03CD:  GOTO   3D9
03CE:  BCF    03.0
03CF:  RLF    4F,F
03D0:  RLF    50,F
03D1:  RLF    51,F
03D2:  RLF    52,F
03D3:  BCF    03.0
03D4:  RLF    7A,F
03D5:  RLF    79,F
03D6:  RLF    78,F
03D7:  RLF    54,F
03D8:  GOTO   385
03D9:  BTFSS  54.0
03DA:  GOTO   3E1
03DB:  BCF    03.0
03DC:  RRF    78,F
03DD:  RRF    79,F
03DE:  RRF    7A,F
03DF:  RRF    54,F
03E0:  GOTO   3E4
03E1:  DECF   77,F
03E2:  BTFSC  03.2
03E3:  GOTO   426
03E4:  BTFSC  54.7
03E5:  GOTO   40D
03E6:  BCF    03.0
03E7:  RLF    4F,F
03E8:  RLF    50,F
03E9:  RLF    51,F
03EA:  RLF    52,F
03EB:  MOVF   4E,W
03EC:  SUBWF  4F,F
03ED:  BTFSC  03.0
03EE:  GOTO   3F9
03EF:  MOVLW  01
03F0:  SUBWF  50,F
03F1:  BTFSC  03.0
03F2:  GOTO   3F9
03F3:  SUBWF  51,F
03F4:  BTFSC  03.0
03F5:  GOTO   3F9
03F6:  SUBWF  52,F
03F7:  BTFSS  03.0
03F8:  GOTO   41C
03F9:  MOVF   4D,W
03FA:  SUBWF  50,F
03FB:  BTFSC  03.0
03FC:  GOTO   404
03FD:  MOVLW  01
03FE:  SUBWF  51,F
03FF:  BTFSC  03.0
0400:  GOTO   404
0401:  SUBWF  52,F
0402:  BTFSS  03.0
0403:  GOTO   41C
0404:  MOVF   4C,W
0405:  IORLW  80
0406:  SUBWF  51,F
0407:  BTFSC  03.0
0408:  GOTO   40D
0409:  MOVLW  01
040A:  SUBWF  52,F
040B:  BTFSS  03.0
040C:  GOTO   41C
040D:  INCF   7A,F
040E:  BTFSS  03.2
040F:  GOTO   41C
0410:  INCF   79,F
0411:  BTFSS  03.2
0412:  GOTO   41C
0413:  INCF   78,F
0414:  BTFSS  03.2
0415:  GOTO   41C
0416:  INCF   77,F
0417:  BTFSC  03.2
0418:  GOTO   426
0419:  RRF    78,F
041A:  RRF    79,F
041B:  RRF    7A,F
041C:  MOVF   48,W
041D:  MOVWF  53
041E:  MOVF   4C,W
041F:  XORWF  53,F
0420:  BTFSS  53.7
0421:  GOTO   424
0422:  BSF    78.7
0423:  GOTO   42A
0424:  BCF    78.7
0425:  GOTO   42A
0426:  CLRF   77
0427:  CLRF   78
0428:  CLRF   79
0429:  CLRF   7A
042A:  BCF    03.5
042B:  BCF    0A.3
042C:  BCF    0A.4
042D:  GOTO   6F7 (RETURN)
....................  
.................... #list 
....................  
.................... #device ADC=10 
....................  
.................... #FUSES PUT                   	//Power Up Timer 
.................... #FUSES BROWNOUT              	//Reset when brownout detected 
.................... #FUSES NOLVP                 	//No low voltage prgming, B3(PIC16) or B5(PIC18) used for I/O 
.................... #FUSES NOCPD                 	//No EE protection 
.................... #FUSES NOWRT                 	//Program memory not write protected 
.................... #FUSES NOPROTECT             	//Code not protected from reading 
....................  
.................... #use delay(crystal=8MHz) 
*
00DD:  MOVLW  C7
00DE:  MOVWF  04
00DF:  BCF    03.7
00E0:  MOVF   00,W
00E1:  BTFSC  03.2
00E2:  GOTO   0F0
00E3:  MOVLW  02
00E4:  MOVWF  78
00E5:  CLRF   77
00E6:  DECFSZ 77,F
00E7:  GOTO   0E6
00E8:  DECFSZ 78,F
00E9:  GOTO   0E5
00EA:  MOVLW  97
00EB:  MOVWF  77
00EC:  DECFSZ 77,F
00ED:  GOTO   0EC
00EE:  DECFSZ 00,F
00EF:  GOTO   0E3
00F0:  RETURN
.................... #use FIXED_IO( B_outputs=PIN_B7,PIN_B6,PIN_B5,PIN_B4,PIN_B3,PIN_B2,PIN_B1,PIN_B0 ) 
.................... #define POTENCIOMETRO	PIN_A0 
.................... #define BTN_LIGA	PIN_A1 
.................... #define BTN_MUDA	PIN_A2 
.................... #define LED0	PIN_B0 
.................... #define LED1	PIN_B1 
.................... #define LED2	PIN_B2 
.................... #define LED3	PIN_B3 
.................... #define LED4	PIN_B4 
.................... #define LED5	PIN_B5 
.................... #define LED6	PIN_B6 
.................... #define LED7	PIN_B7 
....................  
....................  
....................  
.................... #include <lcd_8bits.c> 
.................... /*========================================= 
.................... 8-BIT LCD DRIVER FOR PIC16F877A CCSC 
.................... ==========================================*/ 
.................... /////////////////////////////////////////////////////////////////// 
.................... // CCS C Compiler 
.................... // LCD 16x2 
.................... // 
.................... // by Nisar Ahmed 
.................... // 2009/03/27 
.................... ////////////////////////////////////////////////////////////////// 
.................... //#include <16F877.h>                           // PIC16F877 header file 
.................... //#use delay(clock=4000000)                       // for 4Mhz crystal 
.................... //#fuses XT, NOWDT, NOPROTECT, NOLVP              // for debug mode 
....................  
.................... #define PORT_A                  0               // define for function output() 
.................... #define PORT_B                  1 
.................... #define PORT_C                  2 
.................... #define PORT_D                  3 
.................... #define PORT_E                  4 
....................  
.................... #define NCHAR_PER_LINE          16              // max char numbers per line 
.................... #define LCD_RS                  PIN_E0 
.................... #define LCD_RW                  PIN_E2 
.................... #define LCD_E                   PIN_E1 
.................... #define LCD_DAT                 PORT_D 
.................... //===========================================================================// 
.................... //--- output() -----------------///////////////////////////////////////////////  
.................... //lcd data bus output 
.................... void output(int8 port, int8 dat) 
.................... { 
....................         switch(port) 
*
0085:  BSF    03.5
0086:  MOVF   51,W
0087:  XORLW  00
0088:  BCF    03.5
0089:  BTFSC  03.2
008A:  GOTO   098
008B:  XORLW  01
008C:  BTFSC  03.2
008D:  GOTO   09E
008E:  XORLW  03
008F:  BTFSC  03.2
0090:  GOTO   0A4
0091:  XORLW  01
0092:  BTFSC  03.2
0093:  GOTO   0AC
0094:  XORLW  07
0095:  BTFSC  03.2
0096:  GOTO   0B2
0097:  GOTO   0BA
....................                 { 
....................                 case PORT_A: output_a(dat);      break; 
0098:  BSF    03.5
0099:  CLRF   05
009A:  MOVF   52,W
009B:  BCF    03.5
009C:  MOVWF  05
009D:  GOTO   0BA
....................                 case PORT_B: output_b(dat);      break; 
009E:  BSF    03.5
009F:  CLRF   06
00A0:  MOVF   52,W
00A1:  BCF    03.5
00A2:  MOVWF  06
00A3:  GOTO   0BA
....................                 case PORT_C: output_c(dat);      break; 
00A4:  MOVLW  00
00A5:  MOVWF  2B
00A6:  BSF    03.5
00A7:  CLRF   07
00A8:  MOVF   52,W
00A9:  BCF    03.5
00AA:  MOVWF  07
00AB:  GOTO   0BA
....................                 case PORT_D: output_d(dat);      break; 
00AC:  BSF    03.5
00AD:  CLRF   08
00AE:  MOVF   52,W
00AF:  BCF    03.5
00B0:  MOVWF  08
00B1:  GOTO   0BA
....................                 case PORT_E: output_e(dat);      break; 
00B2:  BSF    03.5
00B3:  BCF    09.0
00B4:  BCF    09.1
00B5:  BCF    09.2
00B6:  MOVF   52,W
00B7:  BCF    03.5
00B8:  MOVWF  09
00B9:  GOTO   0BA
....................                 default :       //??? port maybe error! 
....................                         break; 
....................                 } 
00BA:  RETURN
.................... }//end output() 
.................... //===========================================================================// 
.................... //--- lcd_write_cmd() -----------//////////////////////////////////////////////  
.................... void lcd_write_cmd(int8 cmd) 
.................... { 
....................    delay_us(40); 
00BB:  MOVLW  1A
00BC:  MOVWF  77
00BD:  DECFSZ 77,F
00BE:  GOTO   0BD
00BF:  NOP
....................    output_low(LCD_RS); 
00C0:  BSF    03.5
00C1:  BCF    09.0
00C2:  BCF    03.5
00C3:  BCF    09.0
....................    output_low(LCD_RW); 
00C4:  BSF    03.5
00C5:  BCF    09.2
00C6:  BCF    03.5
00C7:  BCF    09.2
....................    output(LCD_DAT, cmd); 
00C8:  MOVLW  03
00C9:  BSF    03.5
00CA:  MOVWF  51
00CB:  MOVF   4B,W
00CC:  MOVWF  52
00CD:  BCF    03.5
00CE:  CALL   085
....................     
....................    output_high(LCD_E); 
00CF:  BSF    03.5
00D0:  BCF    09.1
00D1:  BCF    03.5
00D2:  BSF    09.1
....................    delay_us(40); 
00D3:  MOVLW  1A
00D4:  MOVWF  77
00D5:  DECFSZ 77,F
00D6:  GOTO   0D5
00D7:  NOP
....................    output_low(LCD_E); 
00D8:  BSF    03.5
00D9:  BCF    09.1
00DA:  BCF    03.5
00DB:  BCF    09.1
00DC:  RETURN
.................... }//end lcd_write_cmd() 
.................... //===========================================================================// 
.................... //--- lcd_write_dat() ------------/////////////////////////////////////////////  
.................... void lcd_write_dat(int8 dat) 
.................... { 
....................    delay_us(40); 
*
0132:  MOVLW  1A
0133:  MOVWF  77
0134:  DECFSZ 77,F
0135:  GOTO   134
0136:  NOP
....................    output_high(LCD_RS); 
0137:  BSF    03.5
0138:  BCF    09.0
0139:  BCF    03.5
013A:  BSF    09.0
....................    output_low(LCD_RW); 
013B:  BSF    03.5
013C:  BCF    09.2
013D:  BCF    03.5
013E:  BCF    09.2
....................    output(LCD_DAT, dat); 
013F:  MOVLW  03
0140:  BSF    03.5
0141:  MOVWF  51
0142:  MOVF   50,W
0143:  MOVWF  52
0144:  BCF    03.5
0145:  CALL   085
....................     
....................    output_high(LCD_E); 
0146:  BSF    03.5
0147:  BCF    09.1
0148:  BCF    03.5
0149:  BSF    09.1
....................    delay_us(40); 
014A:  MOVLW  1A
014B:  MOVWF  77
014C:  DECFSZ 77,F
014D:  GOTO   14C
014E:  NOP
....................    output_low(LCD_E); 
014F:  BSF    03.5
0150:  BCF    09.1
0151:  BCF    03.5
0152:  BCF    09.1
0153:  RETURN
.................... }//end lcd_write_dat() 
.................... //===========================================================================// 
.................... //--- lcd_init() ------------//////////////////////////////////////////////////  
.................... void lcd_init(void) 
.................... { 
....................    output_low(LCD_E);              // Let LCD E line low 
*
00F1:  BSF    03.5
00F2:  BCF    09.1
00F3:  BCF    03.5
00F4:  BCF    09.1
....................     
....................    lcd_write_cmd(0x38);            // LCD 16x2, 5x7, 8bits data 
00F5:  MOVLW  38
00F6:  BSF    03.5
00F7:  MOVWF  4B
00F8:  BCF    03.5
00F9:  CALL   0BB
....................    delay_ms(15); 
00FA:  MOVLW  0F
00FB:  BSF    03.5
00FC:  MOVWF  47
00FD:  BCF    03.5
00FE:  CALL   0DD
....................    lcd_write_cmd(0x01);            // Clear LCD display 
00FF:  MOVLW  01
0100:  BSF    03.5
0101:  MOVWF  4B
0102:  BCF    03.5
0103:  CALL   0BB
....................    delay_ms(10); 
0104:  MOVLW  0A
0105:  BSF    03.5
0106:  MOVWF  47
0107:  BCF    03.5
0108:  CALL   0DD
....................    lcd_write_cmd(0x0C);            // Open display & current 
0109:  MOVLW  0C
010A:  BSF    03.5
010B:  MOVWF  4B
010C:  BCF    03.5
010D:  CALL   0BB
....................    delay_ms(10); 
010E:  MOVLW  0A
010F:  BSF    03.5
0110:  MOVWF  47
0111:  BCF    03.5
0112:  CALL   0DD
....................    lcd_write_cmd(0x06);            // Window fixed 
0113:  MOVLW  06
0114:  BSF    03.5
0115:  MOVWF  4B
0116:  BCF    03.5
0117:  CALL   0BB
....................    delay_ms(10); 
0118:  MOVLW  0A
0119:  BSF    03.5
011A:  MOVWF  47
011B:  BCF    03.5
011C:  CALL   0DD
011D:  BCF    0A.3
011E:  BCF    0A.4
011F:  GOTO   5AE (RETURN)
.................... }//end lcd_init() 
.................... //===========================================================================// 
.................... //--- lcd_display_char() ------------////////////////////////////////////////// 
.................... void lcd_display_char(int8 line, int8 pos, int8 ch) 
.................... { 
....................         int8 tmp; 
....................  
....................         line = (line==0) ? 0 : 1; 
....................         pos  = (pos >NCHAR_PER_LINE) ? NCHAR_PER_LINE : pos; 
....................  
....................         tmp = 0x80 + 0x40*line + pos; 
....................         lcd_write_cmd(tmp); 
....................         lcd_write_dat(ch); 
.................... }//end lcd_display_char() 
.................... //===========================================================================// 
.................... //--- lcd_display_str() ------------///////////////////////////////////////////  
.................... void lcd_display_str(int8 line, char str[]) 
.................... { 
....................      int8 i; 
....................  
....................         for(i=0; i<NCHAR_PER_LINE; i++) 
....................             { 
....................                 lcd_display_char(line, i, ' '); 
....................                 } 
....................         for(i=0; i<NCHAR_PER_LINE; i++) 
....................                 { 
....................                 if(str[i] == '\0') break; 
....................                 lcd_display_char(line, i, str[i]); 
....................                 } 
.................... }//end lcd_display_str() 
.................... //===========================================================================// 
.................... //--- lcd_gotoxy(coluna linha) -----///////////////////////////////////////////  
.................... void lcd_gotoxy(unsigned int8 x, unsigned int8 y) 
.................... { 
....................    unsigned int8 address; 
....................     
....................    if(y != 1) 
0120:  BSF    03.5
0121:  DECFSZ 48,W
0122:  GOTO   124
0123:  GOTO   127
....................       address = 0x40; 
0124:  MOVLW  40
0125:  MOVWF  49
0126:  GOTO   128
....................    else 
....................       address = 0x00; 
0127:  CLRF   49
....................       
....................    address += (x-1);    
0128:  MOVLW  01
0129:  SUBWF  47,W
012A:  ADDWF  49,F
....................    lcd_write_cmd(0x80|address); 
012B:  MOVF   49,W
012C:  IORLW  80
012D:  MOVWF  4A
012E:  MOVWF  4B
012F:  BCF    03.5
0130:  CALL   0BB
0131:  RETURN
.................... } 
.................... //===========================================================================// 
....................  
....................  
.................... // Declaração de variáveis 
.................... int1 fimfreq = 0, fim100ms = 0, sistema = 1; 
.................... int8 i = 0, tempo100ms = 0, coluna = 0; 
.................... int16 valor_potenciometro = 0, frequencia = 0, modo = 1, periodo = 0, tempo = 0; 
.................... float analogico = 1.0 / 1023.0; 
.................... int8 seq0[16] = {1, 3, 7, 15, 31, 63, 127, 255, 254, 252, 248, 240, 224, 192, 128}; 
*
04E5:  MOVLW  01
04E6:  BCF    03.5
04E7:  MOVWF  3E
04E8:  MOVLW  03
04E9:  MOVWF  3F
04EA:  MOVLW  07
04EB:  MOVWF  40
04EC:  MOVLW  0F
04ED:  MOVWF  41
04EE:  MOVLW  1F
04EF:  MOVWF  42
04F0:  MOVLW  3F
04F1:  MOVWF  43
04F2:  MOVLW  7F
04F3:  MOVWF  44
04F4:  MOVLW  FF
04F5:  MOVWF  45
04F6:  MOVLW  FE
04F7:  MOVWF  46
04F8:  MOVLW  FC
04F9:  MOVWF  47
04FA:  MOVLW  F8
04FB:  MOVWF  48
04FC:  MOVLW  F0
04FD:  MOVWF  49
04FE:  MOVLW  E0
04FF:  MOVWF  4A
0500:  MOVLW  C0
0501:  MOVWF  4B
0502:  MOVLW  80
0503:  MOVWF  4C
0504:  CLRF   4D
.................... int8 seq1[9] = {1, 2, 4, 8, 16, 32, 64, 128}; 
0505:  MOVLW  01
0506:  MOVWF  4E
0507:  MOVLW  02
0508:  MOVWF  4F
0509:  MOVLW  04
050A:  MOVWF  50
050B:  MOVLW  08
050C:  MOVWF  51
050D:  MOVLW  10
050E:  MOVWF  52
050F:  MOVLW  20
0510:  MOVWF  53
0511:  MOVLW  40
0512:  MOVWF  54
0513:  MOVLW  80
0514:  MOVWF  55
0515:  CLRF   56
.................... int8 seq2[8] = {129, 66, 36, 24, 24, 36, 66}; 
0516:  MOVLW  81
0517:  MOVWF  57
0518:  MOVLW  42
0519:  MOVWF  58
051A:  MOVLW  24
051B:  MOVWF  59
051C:  MOVLW  18
051D:  MOVWF  5A
051E:  MOVWF  5B
051F:  MOVLW  24
0520:  MOVWF  5C
0521:  MOVLW  42
0522:  MOVWF  5D
0523:  CLRF   5E
.................... int8 seq3[9] = {128, 64, 32, 16, 8, 4, 2, 1}; 
0524:  MOVLW  80
0525:  MOVWF  5F
0526:  MOVLW  40
0527:  MOVWF  60
0528:  MOVLW  20
0529:  MOVWF  61
052A:  MOVLW  10
052B:  MOVWF  62
052C:  MOVLW  08
052D:  MOVWF  63
052E:  MOVLW  04
052F:  MOVWF  64
0530:  MOVLW  02
0531:  MOVWF  65
0532:  MOVLW  01
0533:  MOVWF  66
0534:  CLRF   67
.................... int8 seq4[9] = {129, 3, 6, 12, 24, 48, 96, 192}; 
0535:  MOVLW  81
0536:  MOVWF  68
0537:  MOVLW  03
0538:  MOVWF  69
0539:  MOVLW  06
053A:  MOVWF  6A
053B:  MOVLW  0C
053C:  MOVWF  6B
053D:  MOVLW  18
053E:  MOVWF  6C
053F:  MOVLW  30
0540:  MOVWF  6D
0541:  MOVLW  60
0542:  MOVWF  6E
0543:  MOVLW  C0
0544:  MOVWF  6F
0545:  CLRF   70
.................... int8 seq5[15] = {1, 3, 7, 15, 31, 63, 127, 255, 127, 63, 31, 15, 7, 3}; 
0546:  MOVLW  01
0547:  BSF    03.5
0548:  MOVWF  20
0549:  MOVLW  03
054A:  MOVWF  21
054B:  MOVLW  07
054C:  MOVWF  22
054D:  MOVLW  0F
054E:  MOVWF  23
054F:  MOVLW  1F
0550:  MOVWF  24
0551:  MOVLW  3F
0552:  MOVWF  25
0553:  MOVLW  7F
0554:  MOVWF  26
0555:  MOVLW  FF
0556:  MOVWF  27
0557:  MOVLW  7F
0558:  MOVWF  28
0559:  MOVLW  3F
055A:  MOVWF  29
055B:  MOVLW  1F
055C:  MOVWF  2A
055D:  MOVLW  0F
055E:  MOVWF  2B
055F:  MOVLW  07
0560:  MOVWF  2C
0561:  MOVLW  03
0562:  MOVWF  2D
0563:  CLRF   2E
.................... int8 seq6[15] = {128, 192, 224, 240, 248, 252, 254, 255, 254, 252, 248, 240, 224, 192, 128}; 
0564:  MOVLW  80
0565:  MOVWF  2F
0566:  MOVLW  C0
0567:  MOVWF  30
0568:  MOVLW  E0
0569:  MOVWF  31
056A:  MOVLW  F0
056B:  MOVWF  32
056C:  MOVLW  F8
056D:  MOVWF  33
056E:  MOVLW  FC
056F:  MOVWF  34
0570:  MOVLW  FE
0571:  MOVWF  35
0572:  MOVLW  FF
0573:  MOVWF  36
0574:  MOVLW  FE
0575:  MOVWF  37
0576:  MOVLW  FC
0577:  MOVWF  38
0578:  MOVLW  F8
0579:  MOVWF  39
057A:  MOVLW  F0
057B:  MOVWF  3A
057C:  MOVLW  E0
057D:  MOVWF  3B
057E:  MOVLW  C0
057F:  MOVWF  3C
0580:  MOVLW  80
0581:  MOVWF  3D
.................... int8 seq7[9] = {24, 60, 126, 255, 126, 60, 24, 0}; 
0582:  MOVLW  18
0583:  MOVWF  3E
0584:  MOVLW  3C
0585:  MOVWF  3F
0586:  MOVLW  7E
0587:  MOVWF  40
0588:  MOVLW  FF
0589:  MOVWF  41
058A:  MOVLW  7E
058B:  MOVWF  42
058C:  MOVLW  3C
058D:  MOVWF  43
058E:  MOVLW  18
058F:  MOVWF  44
0590:  CLRF   45
0591:  CLRF   46
....................  
.................... // Espaço para interrupções 
.................... #INT_TIMER0 
.................... void  TIMER0_isr(void) { 
....................  
....................    tempo100ms++; 
*
004F:  INCF   2E,F
....................     
....................    if(tempo100ms >= 100){ 
0050:  MOVF   2E,W
0051:  SUBLW  63
0052:  BTFSC  03.0
0053:  GOTO   056
....................        
....................       fim100ms = 1; 
0054:  BSF    2C.1
....................       tempo100ms = 0; 
0055:  CLRF   2E
....................     
....................    } 
....................     
....................    tempo++; 
0056:  INCF   38,F
0057:  BTFSC  03.2
0058:  INCF   39,F
....................     
....................    if(tempo >= periodo){ 
0059:  MOVF   37,W
005A:  SUBWF  39,W
005B:  BTFSS  03.0
005C:  GOTO   066
005D:  BTFSS  03.2
005E:  GOTO   063
005F:  MOVF   36,W
0060:  SUBWF  38,W
0061:  BTFSS  03.0
0062:  GOTO   066
....................     
....................       tempo = 0; 
0063:  CLRF   39
0064:  CLRF   38
....................       fimfreq = 1; 
0065:  BSF    2C.0
....................     
....................    } 
....................  
0066:  BCF    0B.2
0067:  BCF    0A.3
0068:  BCF    0A.4
0069:  GOTO   02B
.................... } 
....................  
.................... // Declaração de funções 
.................... int8 muda_leds(int8 codigo); 
....................  
.................... void main() { 
*
04BE:  MOVF   03,W
04BF:  ANDLW  1F
04C0:  MOVWF  03
04C1:  MOVLW  FF
04C2:  MOVWF  2B
04C3:  BCF    2C.0
04C4:  BCF    2C.1
04C5:  BSF    2C.2
04C6:  CLRF   2D
04C7:  CLRF   2E
04C8:  CLRF   2F
04C9:  CLRF   31
04CA:  CLRF   30
04CB:  CLRF   33
04CC:  CLRF   32
04CD:  CLRF   35
04CE:  MOVLW  01
04CF:  MOVWF  34
04D0:  CLRF   37
04D1:  CLRF   36
04D2:  CLRF   39
04D3:  CLRF   38
04D4:  MOVLW  08
04D5:  MOVWF  3D
04D6:  MOVLW  20
04D7:  MOVWF  3C
04D8:  CLRF   3B
04D9:  MOVLW  75
04DA:  MOVWF  3A
04DB:  CLRF   72
04DC:  CLRF   71
04DD:  BSF    03.5
04DE:  BSF    1F.0
04DF:  BSF    1F.1
04E0:  BSF    1F.2
04E1:  BCF    1F.3
04E2:  MOVLW  07
04E3:  MOVWF  1C
04E4:  BCF    03.7
....................    setup_adc_ports(AN0); 
*
0592:  BCF    1F.0
0593:  BSF    1F.1
0594:  BSF    1F.2
0595:  BSF    1F.3
....................    setup_adc(ADC_CLOCK_INTERNAL); 
0596:  BCF    1F.6
0597:  BCF    03.5
0598:  BSF    1F.6
0599:  BSF    1F.7
059A:  BSF    03.5
059B:  BSF    1F.7
059C:  BCF    03.5
059D:  BSF    1F.0
....................    setup_timer_0(RTCC_INTERNAL|RTCC_DIV_8|RTCC_8_BIT);      //1,0 ms overflow 
059E:  BSF    03.5
059F:  MOVF   01,W
05A0:  ANDLW  C0
05A1:  IORLW  02
05A2:  MOVWF  01
....................  
....................    enable_interrupts(INT_TIMER0); 
05A3:  BCF    03.5
05A4:  BSF    0B.5
....................    enable_interrupts(GLOBAL); 
05A5:  MOVLW  C0
05A6:  IORWF  0B,F
....................     
....................    set_adc_channel(0); 
05A7:  MOVLW  00
05A8:  MOVWF  78
05A9:  MOVF   1F,W
05AA:  ANDLW  C7
05AB:  IORWF  78,W
05AC:  MOVWF  1F
....................     
....................    lcd_init(); 
05AD:  GOTO   0F1
....................     
....................    lcd_gotoxy(1,1); 
05AE:  MOVLW  01
05AF:  BSF    03.5
05B0:  MOVWF  47
05B1:  MOVWF  48
05B2:  BCF    03.5
05B3:  CALL   120
....................    printf(lcd_write_dat, "Sist: OFF"); 
05B4:  MOVLW  6A
05B5:  BSF    03.6
05B6:  MOVWF  0D
05B7:  MOVLW  00
05B8:  MOVWF  0F
05B9:  BCF    03.6
05BA:  CALL   154
....................     
....................    lcd_gotoxy(11,1); 
05BB:  MOVLW  0B
05BC:  BSF    03.5
05BD:  MOVWF  47
05BE:  MOVLW  01
05BF:  MOVWF  48
05C0:  BCF    03.5
05C1:  CALL   120
....................    printf(lcd_write_dat, "M: %02LU",modo); 
05C2:  MOVLW  4D
05C3:  BSF    03.5
05C4:  MOVWF  50
05C5:  BCF    03.5
05C6:  CALL   132
05C7:  MOVLW  3A
05C8:  BSF    03.5
05C9:  MOVWF  50
05CA:  BCF    03.5
05CB:  CALL   132
05CC:  MOVLW  20
05CD:  BSF    03.5
05CE:  MOVWF  50
05CF:  BCF    03.5
05D0:  CALL   132
05D1:  MOVLW  0B
05D2:  MOVWF  04
05D3:  MOVF   35,W
05D4:  BSF    03.5
05D5:  MOVWF  48
05D6:  BCF    03.5
05D7:  MOVF   34,W
05D8:  BSF    03.5
05D9:  MOVWF  47
05DA:  BCF    03.5
05DB:  CALL   1C8
....................     
....................    valor_potenciometro = read_adc(); 
05DC:  BSF    1F.2
05DD:  BTFSC  1F.2
05DE:  GOTO   5DD
05DF:  BSF    03.5
05E0:  MOVF   1E,W
05E1:  BCF    03.5
05E2:  MOVWF  30
05E3:  MOVF   1E,W
05E4:  MOVWF  31
....................     
....................    frequencia = (int16)(valor_potenciometro * analogico * 9) + 1; 
05E5:  MOVF   31,W
05E6:  BSF    03.5
05E7:  MOVWF  48
05E8:  BCF    03.5
05E9:  MOVF   30,W
05EA:  BSF    03.5
05EB:  MOVWF  47
05EC:  BCF    03.5
05ED:  CALL   22F
05EE:  MOVF   7A,W
05EF:  BSF    03.5
05F0:  MOVWF  4E
05F1:  MOVF   79,W
05F2:  MOVWF  4D
05F3:  MOVF   78,W
05F4:  MOVWF  4C
05F5:  MOVF   77,W
05F6:  MOVWF  4B
05F7:  BCF    03.5
05F8:  MOVF   3D,W
05F9:  BSF    03.5
05FA:  MOVWF  52
05FB:  BCF    03.5
05FC:  MOVF   3C,W
05FD:  BSF    03.5
05FE:  MOVWF  51
05FF:  BCF    03.5
0600:  MOVF   3B,W
0601:  BSF    03.5
0602:  MOVWF  50
0603:  BCF    03.5
0604:  MOVF   3A,W
0605:  BSF    03.5
0606:  MOVWF  4F
0607:  BCF    03.5
0608:  CALL   24E
0609:  MOVF   7A,W
060A:  BSF    03.5
060B:  MOVWF  4A
060C:  MOVF   79,W
060D:  MOVWF  49
060E:  MOVF   78,W
060F:  MOVWF  48
0610:  MOVF   77,W
0611:  MOVWF  47
0612:  MOVF   4A,W
0613:  MOVWF  4E
0614:  MOVF   49,W
0615:  MOVWF  4D
0616:  MOVF   48,W
0617:  MOVWF  4C
0618:  MOVF   47,W
0619:  MOVWF  4B
061A:  CLRF   52
061B:  CLRF   51
061C:  MOVLW  10
061D:  MOVWF  50
061E:  MOVLW  82
061F:  MOVWF  4F
0620:  BCF    03.5
0621:  CALL   24E
0622:  MOVF   7A,W
0623:  BSF    03.5
0624:  MOVWF  4A
0625:  MOVF   79,W
0626:  MOVWF  49
0627:  MOVF   78,W
0628:  MOVWF  48
0629:  MOVF   77,W
062A:  MOVWF  47
062B:  BCF    03.5
062C:  CALL   2C5
062D:  MOVF   79,W
062E:  BSF    03.5
062F:  MOVWF  48
0630:  MOVF   78,W
0631:  MOVWF  47
0632:  MOVLW  01
0633:  ADDWF  47,W
0634:  BCF    03.5
0635:  MOVWF  32
0636:  BSF    03.5
0637:  MOVF   48,W
0638:  BCF    03.5
0639:  MOVWF  33
063A:  BTFSC  03.0
063B:  INCF   33,F
....................     
....................    lcd_gotoxy(1,2); 
063C:  MOVLW  01
063D:  BSF    03.5
063E:  MOVWF  47
063F:  MOVLW  02
0640:  MOVWF  48
0641:  BCF    03.5
0642:  CALL   120
....................    printf(lcd_write_dat, "F: %02LU", frequencia); 
0643:  MOVLW  46
0644:  BSF    03.5
0645:  MOVWF  50
0646:  BCF    03.5
0647:  CALL   132
0648:  MOVLW  3A
0649:  BSF    03.5
064A:  MOVWF  50
064B:  BCF    03.5
064C:  CALL   132
064D:  MOVLW  20
064E:  BSF    03.5
064F:  MOVWF  50
0650:  BCF    03.5
0651:  CALL   132
0652:  MOVLW  0B
0653:  MOVWF  04
0654:  MOVF   33,W
0655:  BSF    03.5
0656:  MOVWF  48
0657:  BCF    03.5
0658:  MOVF   32,W
0659:  BSF    03.5
065A:  MOVWF  47
065B:  BCF    03.5
065C:  CALL   1C8
....................     
....................    lcd_gotoxy(8,2); 
065D:  MOVLW  08
065E:  BSF    03.5
065F:  MOVWF  47
0660:  MOVLW  02
0661:  MOVWF  48
0662:  BCF    03.5
0663:  CALL   120
....................    printf(lcd_write_dat, "Pot: %04LU", valor_potenciometro); 
0664:  MOVLW  6F
0665:  BSF    03.6
0666:  MOVWF  0D
0667:  MOVLW  00
0668:  MOVWF  0F
0669:  BCF    03.0
066A:  MOVLW  05
066B:  BSF    03.5
066C:  BCF    03.6
066D:  MOVWF  47
066E:  BCF    03.5
066F:  CALL   2E6
0670:  MOVLW  09
0671:  MOVWF  04
0672:  MOVF   31,W
0673:  BSF    03.5
0674:  MOVWF  48
0675:  BCF    03.5
0676:  MOVF   30,W
0677:  BSF    03.5
0678:  MOVWF  47
0679:  BCF    03.5
067A:  CALL   1C8
....................  
....................    while(TRUE){ 
....................     
....................       if(fim100ms){ 
067B:  BTFSS  2C.1
067C:  GOTO   79C
....................        
....................          fim100ms = 0; 
067D:  BCF    2C.1
....................     
....................          valor_potenciometro = read_adc(); 
067E:  BSF    1F.2
067F:  BTFSC  1F.2
0680:  GOTO   67F
0681:  BSF    03.5
0682:  MOVF   1E,W
0683:  BCF    03.5
0684:  MOVWF  30
0685:  MOVF   1E,W
0686:  MOVWF  31
....................                 
....................          frequencia = (int16)(valor_potenciometro * analogico * 9) + 1; 
0687:  MOVF   31,W
0688:  BSF    03.5
0689:  MOVWF  48
068A:  BCF    03.5
068B:  MOVF   30,W
068C:  BSF    03.5
068D:  MOVWF  47
068E:  BCF    03.5
068F:  CALL   22F
0690:  MOVF   7A,W
0691:  BSF    03.5
0692:  MOVWF  4E
0693:  MOVF   79,W
0694:  MOVWF  4D
0695:  MOVF   78,W
0696:  MOVWF  4C
0697:  MOVF   77,W
0698:  MOVWF  4B
0699:  BCF    03.5
069A:  MOVF   3D,W
069B:  BSF    03.5
069C:  MOVWF  52
069D:  BCF    03.5
069E:  MOVF   3C,W
069F:  BSF    03.5
06A0:  MOVWF  51
06A1:  BCF    03.5
06A2:  MOVF   3B,W
06A3:  BSF    03.5
06A4:  MOVWF  50
06A5:  BCF    03.5
06A6:  MOVF   3A,W
06A7:  BSF    03.5
06A8:  MOVWF  4F
06A9:  BCF    03.5
06AA:  CALL   24E
06AB:  MOVF   7A,W
06AC:  BSF    03.5
06AD:  MOVWF  4A
06AE:  MOVF   79,W
06AF:  MOVWF  49
06B0:  MOVF   78,W
06B1:  MOVWF  48
06B2:  MOVF   77,W
06B3:  MOVWF  47
06B4:  MOVF   4A,W
06B5:  MOVWF  4E
06B6:  MOVF   49,W
06B7:  MOVWF  4D
06B8:  MOVF   48,W
06B9:  MOVWF  4C
06BA:  MOVF   47,W
06BB:  MOVWF  4B
06BC:  CLRF   52
06BD:  CLRF   51
06BE:  MOVLW  10
06BF:  MOVWF  50
06C0:  MOVLW  82
06C1:  MOVWF  4F
06C2:  BCF    03.5
06C3:  CALL   24E
06C4:  MOVF   7A,W
06C5:  BSF    03.5
06C6:  MOVWF  4A
06C7:  MOVF   79,W
06C8:  MOVWF  49
06C9:  MOVF   78,W
06CA:  MOVWF  48
06CB:  MOVF   77,W
06CC:  MOVWF  47
06CD:  BCF    03.5
06CE:  CALL   2C5
06CF:  MOVF   79,W
06D0:  BSF    03.5
06D1:  MOVWF  48
06D2:  MOVF   78,W
06D3:  MOVWF  47
06D4:  MOVLW  01
06D5:  ADDWF  47,W
06D6:  BCF    03.5
06D7:  MOVWF  32
06D8:  BSF    03.5
06D9:  MOVF   48,W
06DA:  BCF    03.5
06DB:  MOVWF  33
06DC:  BTFSC  03.0
06DD:  INCF   33,F
....................           
....................          periodo = (int16)((1.0 / frequencia) * 1000); 
06DE:  MOVF   33,W
06DF:  BSF    03.5
06E0:  MOVWF  48
06E1:  BCF    03.5
06E2:  MOVF   32,W
06E3:  BSF    03.5
06E4:  MOVWF  47
06E5:  BCF    03.5
06E6:  CALL   22F
06E7:  BSF    03.5
06E8:  CLRF   4A
06E9:  CLRF   49
06EA:  CLRF   48
06EB:  MOVLW  7F
06EC:  MOVWF  47
06ED:  MOVF   7A,W
06EE:  MOVWF  4E
06EF:  MOVF   79,W
06F0:  MOVWF  4D
06F1:  MOVF   78,W
06F2:  MOVWF  4C
06F3:  MOVF   77,W
06F4:  MOVWF  4B
06F5:  BCF    03.5
06F6:  GOTO   360
06F7:  MOVF   7A,W
06F8:  BSF    03.5
06F9:  MOVWF  4A
06FA:  MOVF   79,W
06FB:  MOVWF  49
06FC:  MOVF   78,W
06FD:  MOVWF  48
06FE:  MOVF   77,W
06FF:  MOVWF  47
0700:  MOVF   4A,W
0701:  MOVWF  4E
0702:  MOVF   49,W
0703:  MOVWF  4D
0704:  MOVF   48,W
0705:  MOVWF  4C
0706:  MOVF   47,W
0707:  MOVWF  4B
0708:  CLRF   52
0709:  CLRF   51
070A:  MOVLW  7A
070B:  MOVWF  50
070C:  MOVLW  88
070D:  MOVWF  4F
070E:  BCF    03.5
070F:  CALL   24E
0710:  MOVF   7A,W
0711:  BSF    03.5
0712:  MOVWF  4A
0713:  MOVF   79,W
0714:  MOVWF  49
0715:  MOVF   78,W
0716:  MOVWF  48
0717:  MOVF   77,W
0718:  MOVWF  47
0719:  BCF    03.5
071A:  CALL   2C5
071B:  MOVF   79,W
071C:  MOVWF  37
071D:  MOVF   78,W
071E:  MOVWF  36
....................           
....................          if(sistema == 1){ 
071F:  BTFSS  2C.2
0720:  GOTO   72F
....................           
....................             lcd_gotoxy(1,1); 
0721:  MOVLW  01
0722:  BSF    03.5
0723:  MOVWF  47
0724:  MOVWF  48
0725:  BCF    03.5
0726:  CALL   120
....................             printf(lcd_write_dat, "Sist: ON!"); 
0727:  MOVLW  75
0728:  BSF    03.6
0729:  MOVWF  0D
072A:  MOVLW  00
072B:  MOVWF  0F
072C:  BCF    03.6
072D:  CALL   154
....................           
....................          } 
072E:  GOTO   73C
....................           
....................          else{ 
....................           
....................             lcd_gotoxy(1,1); 
072F:  MOVLW  01
0730:  BSF    03.5
0731:  MOVWF  47
0732:  MOVWF  48
0733:  BCF    03.5
0734:  CALL   120
....................             printf(lcd_write_dat, "Sist: OFF"); 
0735:  MOVLW  7A
0736:  BSF    03.6
0737:  MOVWF  0D
0738:  MOVLW  00
0739:  MOVWF  0F
073A:  BCF    03.6
073B:  CALL   154
....................           
....................          } 
....................           
....................          lcd_gotoxy(11,1); 
073C:  MOVLW  0B
073D:  BSF    03.5
073E:  MOVWF  47
073F:  MOVLW  01
0740:  MOVWF  48
0741:  BCF    03.5
0742:  CALL   120
....................          printf(lcd_write_dat, "M: %02LU",modo); 
0743:  MOVLW  4D
0744:  BSF    03.5
0745:  MOVWF  50
0746:  BCF    03.5
0747:  CALL   132
0748:  MOVLW  3A
0749:  BSF    03.5
074A:  MOVWF  50
074B:  BCF    03.5
074C:  CALL   132
074D:  MOVLW  20
074E:  BSF    03.5
074F:  MOVWF  50
0750:  BCF    03.5
0751:  CALL   132
0752:  MOVLW  0B
0753:  MOVWF  04
0754:  MOVF   35,W
0755:  BSF    03.5
0756:  MOVWF  48
0757:  BCF    03.5
0758:  MOVF   34,W
0759:  BSF    03.5
075A:  MOVWF  47
075B:  BCF    03.5
075C:  CALL   1C8
....................           
....................          lcd_gotoxy(1,2); 
075D:  MOVLW  01
075E:  BSF    03.5
075F:  MOVWF  47
0760:  MOVLW  02
0761:  MOVWF  48
0762:  BCF    03.5
0763:  CALL   120
....................          printf(lcd_write_dat, "F: %02LU", frequencia); 
0764:  MOVLW  46
0765:  BSF    03.5
0766:  MOVWF  50
0767:  BCF    03.5
0768:  CALL   132
0769:  MOVLW  3A
076A:  BSF    03.5
076B:  MOVWF  50
076C:  BCF    03.5
076D:  CALL   132
076E:  MOVLW  20
076F:  BSF    03.5
0770:  MOVWF  50
0771:  BCF    03.5
0772:  CALL   132
0773:  MOVLW  0B
0774:  MOVWF  04
0775:  MOVF   33,W
0776:  BSF    03.5
0777:  MOVWF  48
0778:  BCF    03.5
0779:  MOVF   32,W
077A:  BSF    03.5
077B:  MOVWF  47
077C:  BCF    03.5
077D:  CALL   1C8
....................           
....................          lcd_gotoxy(8,2); 
077E:  MOVLW  08
077F:  BSF    03.5
0780:  MOVWF  47
0781:  MOVLW  02
0782:  MOVWF  48
0783:  BCF    03.5
0784:  CALL   120
....................          printf(lcd_write_dat, "Pot: %04LU", valor_potenciometro); 
0785:  MOVLW  7F
0786:  BSF    03.6
0787:  MOVWF  0D
0788:  MOVLW  00
0789:  MOVWF  0F
078A:  BCF    03.0
078B:  MOVLW  05
078C:  BSF    03.5
078D:  BCF    03.6
078E:  MOVWF  47
078F:  BCF    03.5
0790:  CALL   2E6
0791:  MOVLW  09
0792:  MOVWF  04
0793:  MOVF   31,W
0794:  BSF    03.5
0795:  MOVWF  48
0796:  BCF    03.5
0797:  MOVF   30,W
0798:  BSF    03.5
0799:  MOVWF  47
079A:  BCF    03.5
079B:  CALL   1C8
....................           
....................       } 
....................           
....................       // Leitura dos Botões 
....................       if(!input(BTN_LIGA)){ 
079C:  BSF    03.5
079D:  BSF    05.1
079E:  BCF    03.5
079F:  BTFSC  05.1
07A0:  GOTO   7B2
....................        
....................          for(i = 0; i < 50; i++){ 
07A1:  CLRF   2D
07A2:  MOVF   2D,W
07A3:  SUBLW  31
07A4:  BTFSS  03.0
07A5:  GOTO   7AD
....................           
....................             if(!input(BTN_LIGA)) 
07A6:  BSF    03.5
07A7:  BSF    05.1
07A8:  BCF    03.5
07A9:  BTFSS  05.1
....................                i = 0; 
07AA:  CLRF   2D
07AB:  INCF   2D,F
07AC:  GOTO   7A2
....................           
....................          } 
....................           
....................          if(sistema == 0){ 
07AD:  BTFSC  2C.2
07AE:  GOTO   7B1
....................           
....................             sistema = 1; 
07AF:  BSF    2C.2
....................           
....................          } 
07B0:  GOTO   7B2
....................           
....................          else{ 
....................           
....................             sistema = 0; 
07B1:  BCF    2C.2
....................           
....................          } 
....................        
....................       } 
....................        
....................       if(!input(BTN_MUDA)){ 
07B2:  BSF    03.5
07B3:  BSF    05.2
07B4:  BCF    03.5
07B5:  BTFSC  05.2
07B6:  GOTO   7D0
....................        
....................          for(i = 0; i < 50; i++){ 
07B7:  CLRF   2D
07B8:  MOVF   2D,W
07B9:  SUBLW  31
07BA:  BTFSS  03.0
07BB:  GOTO   7C3
....................           
....................             if(!input(BTN_MUDA)) 
07BC:  BSF    03.5
07BD:  BSF    05.2
07BE:  BCF    03.5
07BF:  BTFSS  05.2
....................                i = 0; 
07C0:  CLRF   2D
07C1:  INCF   2D,F
07C2:  GOTO   7B8
....................           
....................          } 
....................        
....................          modo++; 
07C3:  INCF   34,F
07C4:  BTFSC  03.2
07C5:  INCF   35,F
....................           
....................          if(modo > 8) 
07C6:  MOVF   35,F
07C7:  BTFSS  03.2
07C8:  GOTO   7CD
07C9:  MOVF   34,W
07CA:  SUBLW  08
07CB:  BTFSC  03.0
07CC:  GOTO   7D0
....................             modo = 1; 
07CD:  CLRF   35
07CE:  MOVLW  01
07CF:  MOVWF  34
....................        
....................       } 
....................        
....................       // Controle do Sistema 
....................        
....................       if(sistema == 1){ 
07D0:  BTFSS  2C.2
07D1:  GOTO   7ED
....................        
....................          if(fimfreq == 1){ 
07D2:  BTFSS  2C.0
07D3:  GOTO   7ED
....................           
....................             fimfreq = 0; 
07D4:  BCF    2C.0
....................              
....................             coluna++; 
07D5:  INCF   2F,F
....................              
....................             output_b(muda_leds(modo - 1)); 
07D6:  MOVLW  01
07D7:  SUBWF  34,W
07D8:  BSF    03.5
07D9:  MOVWF  47
07DA:  BCF    03.5
07DB:  MOVF   35,W
07DC:  BSF    03.5
07DD:  MOVWF  48
07DE:  MOVLW  00
07DF:  BTFSS  03.0
07E0:  MOVLW  01
07E1:  SUBWF  48,F
07E2:  MOVF   47,W
07E3:  MOVWF  49
07E4:  BCF    03.5
07E5:  GOTO   42E
07E6:  MOVF   78,W
07E7:  BSF    03.5
07E8:  MOVWF  47
07E9:  CLRF   06
07EA:  MOVF   47,W
07EB:  BCF    03.5
07EC:  MOVWF  06
....................           
....................          } 
....................        
....................       } 
07ED:  GOTO   67B
....................  
....................    } 
....................  
.................... } 
....................  
07EE:  SLEEP
.................... int8 muda_leds(int8 sequencia){ 
....................  
....................    if(sequencia == 0){ 
*
042E:  BSF    03.5
042F:  MOVF   49,F
0430:  BTFSS  03.2
0431:  GOTO   440
....................     
....................       if(coluna > 14) 
0432:  BCF    03.5
0433:  MOVF   2F,W
0434:  SUBLW  0E
0435:  BTFSS  03.0
....................          coluna = 0; 
0436:  CLRF   2F
....................           
....................       return seq0[coluna]; 
0437:  MOVLW  3E
0438:  ADDWF  2F,W
0439:  MOVWF  04
043A:  BCF    03.7
043B:  MOVF   00,W
043C:  MOVWF  78
043D:  GOTO   4B9
....................     
....................    } 
043E:  GOTO   4B9
043F:  BSF    03.5
....................     
....................    else if(sequencia == 1){ 
0440:  DECFSZ 49,W
0441:  GOTO   450
....................     
....................       if(coluna > 8) 
0442:  BCF    03.5
0443:  MOVF   2F,W
0444:  SUBLW  08
0445:  BTFSS  03.0
....................          coluna = 0; 
0446:  CLRF   2F
....................           
....................       return seq1[coluna]; 
0447:  MOVLW  4E
0448:  ADDWF  2F,W
0449:  MOVWF  04
044A:  BCF    03.7
044B:  MOVF   00,W
044C:  MOVWF  78
044D:  GOTO   4B9
....................     
....................    } 
044E:  GOTO   4B9
044F:  BSF    03.5
....................     
....................    else if(sequencia == 2){ 
0450:  MOVF   49,W
0451:  SUBLW  02
0452:  BTFSS  03.2
0453:  GOTO   462
....................     
....................       if(coluna > 7) 
0454:  BCF    03.5
0455:  MOVF   2F,W
0456:  SUBLW  07
0457:  BTFSS  03.0
....................          coluna = 0; 
0458:  CLRF   2F
....................           
....................       return seq2[coluna]; 
0459:  MOVLW  57
045A:  ADDWF  2F,W
045B:  MOVWF  04
045C:  BCF    03.7
045D:  MOVF   00,W
045E:  MOVWF  78
045F:  GOTO   4B9
....................     
....................    } 
0460:  GOTO   4B9
0461:  BSF    03.5
....................     
....................    else if(sequencia == 3){ 
0462:  MOVF   49,W
0463:  SUBLW  03
0464:  BTFSS  03.2
0465:  GOTO   474
....................     
....................       if(coluna > 8) 
0466:  BCF    03.5
0467:  MOVF   2F,W
0468:  SUBLW  08
0469:  BTFSS  03.0
....................          coluna = 0; 
046A:  CLRF   2F
....................           
....................       return seq3[coluna]; 
046B:  MOVLW  5F
046C:  ADDWF  2F,W
046D:  MOVWF  04
046E:  BCF    03.7
046F:  MOVF   00,W
0470:  MOVWF  78
0471:  GOTO   4B9
....................     
....................    } 
0472:  GOTO   4B9
0473:  BSF    03.5
....................     
....................    else if(sequencia == 4){ 
0474:  MOVF   49,W
0475:  SUBLW  04
0476:  BTFSS  03.2
0477:  GOTO   486
....................     
....................       if(coluna > 8) 
0478:  BCF    03.5
0479:  MOVF   2F,W
047A:  SUBLW  08
047B:  BTFSS  03.0
....................          coluna = 0; 
047C:  CLRF   2F
....................           
....................       return seq4[coluna]; 
047D:  MOVLW  68
047E:  ADDWF  2F,W
047F:  MOVWF  04
0480:  BCF    03.7
0481:  MOVF   00,W
0482:  MOVWF  78
0483:  GOTO   4B9
....................     
....................    } 
0484:  GOTO   4B9
0485:  BSF    03.5
....................     
....................    else if(sequencia == 5){ 
0486:  MOVF   49,W
0487:  SUBLW  05
0488:  BTFSS  03.2
0489:  GOTO   498
....................     
....................       if(coluna > 14) 
048A:  BCF    03.5
048B:  MOVF   2F,W
048C:  SUBLW  0E
048D:  BTFSS  03.0
....................          coluna = 0; 
048E:  CLRF   2F
....................           
....................       return seq5[coluna]; 
048F:  MOVLW  A0
0490:  ADDWF  2F,W
0491:  MOVWF  04
0492:  BCF    03.7
0493:  MOVF   00,W
0494:  MOVWF  78
0495:  GOTO   4B9
....................     
....................    } 
0496:  GOTO   4B9
0497:  BSF    03.5
....................     
....................    else if(sequencia == 6){ 
0498:  MOVF   49,W
0499:  SUBLW  06
049A:  BTFSS  03.2
049B:  GOTO   4AA
....................     
....................       if(coluna > 14) 
049C:  BCF    03.5
049D:  MOVF   2F,W
049E:  SUBLW  0E
049F:  BTFSS  03.0
....................          coluna = 0; 
04A0:  CLRF   2F
....................           
....................       return seq6[coluna]; 
04A1:  MOVLW  AF
04A2:  ADDWF  2F,W
04A3:  MOVWF  04
04A4:  BCF    03.7
04A5:  MOVF   00,W
04A6:  MOVWF  78
04A7:  GOTO   4B9
....................     
....................    } 
04A8:  GOTO   4B9
04A9:  BSF    03.5
....................     
....................    else if(sequencia == 7){ 
04AA:  MOVF   49,W
04AB:  SUBLW  07
04AC:  BTFSS  03.2
04AD:  GOTO   4BA
....................     
....................       if(coluna > 8) 
04AE:  BCF    03.5
04AF:  MOVF   2F,W
04B0:  SUBLW  08
04B1:  BTFSS  03.0
....................          coluna = 0; 
04B2:  CLRF   2F
....................           
....................       return seq7[coluna]; 
04B3:  MOVLW  BE
04B4:  ADDWF  2F,W
04B5:  MOVWF  04
04B6:  BCF    03.7
04B7:  MOVF   00,W
04B8:  MOVWF  78
04B9:  BSF    03.5
....................     
....................    } 
04BA:  BCF    03.5
04BB:  BCF    0A.3
04BC:  BCF    0A.4
04BD:  GOTO   7E6 (RETURN)
....................  
.................... } 

Configuration Fuses:
   Word  1: 3F72   HS NOWDT PUT BROWNOUT NOLVP NOCPD NOWRT NODEBUG NOPROTECT
